
main.elf:     file format elf32-littleriscv


Disassembly of section .text:

00000000 <_isr_handler>:
       0:	0080006f          	j	8 <_isr_routine>
       4:	1440006f          	j	148 <_start>

00000008 <_isr_routine>:
       8:	f8010113          	addi	sp,sp,-128
       c:	00112023          	sw	ra,0(sp)
      10:	00312423          	sw	gp,8(sp)
      14:	00412623          	sw	tp,12(sp)
      18:	00512823          	sw	t0,16(sp)
      1c:	00612a23          	sw	t1,20(sp)
      20:	00712c23          	sw	t2,24(sp)
      24:	00812e23          	sw	s0,28(sp)
      28:	02912023          	sw	s1,32(sp)
      2c:	02a12223          	sw	a0,36(sp)
      30:	02b12423          	sw	a1,40(sp)
      34:	02c12623          	sw	a2,44(sp)
      38:	02d12823          	sw	a3,48(sp)
      3c:	02e12a23          	sw	a4,52(sp)
      40:	02f12c23          	sw	a5,56(sp)
      44:	03012e23          	sw	a6,60(sp)
      48:	05112023          	sw	a7,64(sp)
      4c:	05212223          	sw	s2,68(sp)
      50:	05312423          	sw	s3,72(sp)
      54:	05412623          	sw	s4,76(sp)
      58:	05512823          	sw	s5,80(sp)
      5c:	05612a23          	sw	s6,84(sp)
      60:	05712c23          	sw	s7,88(sp)
      64:	05812e23          	sw	s8,92(sp)
      68:	07912023          	sw	s9,96(sp)
      6c:	07a12223          	sw	s10,100(sp)
      70:	07b12423          	sw	s11,104(sp)
      74:	07c12623          	sw	t3,108(sp)
      78:	07d12823          	sw	t4,112(sp)
      7c:	07e12a23          	sw	t5,116(sp)
      80:	07f12c23          	sw	t6,120(sp)
      84:	342022f3          	csrr	t0,mcause
      88:	80000337          	lui	t1,0x80000
      8c:	02536463          	bltu	t1,t0,b4 <external_irq>
      90:	00028833          	add	a6,t0,zero
      94:	00b00313          	li	t1,11
      98:	00628463          	beq	t0,t1,a0 <skip_init_args>
      9c:	34102573          	csrr	a0,mepc

000000a0 <skip_init_args>:
      a0:	625010ef          	jal	1ec4 <handle_exception>
      a4:	341022f3          	csrr	t0,mepc
      a8:	00428293          	addi	t0,t0,4
      ac:	34129073          	csrw	mepc,t0
      b0:	0180006f          	j	c8 <restore>

000000b4 <external_irq>:
      b4:	800002b7          	lui	t0,0x80000
      b8:	fff28293          	addi	t0,t0,-1 # 7fffffff <_stack_end+0x7fefbaab>
      bc:	34202373          	csrr	t1,mcause
      c0:	0062f533          	and	a0,t0,t1
      c4:	3e5010ef          	jal	1ca8 <handle_interrupt>

000000c8 <restore>:
      c8:	00012083          	lw	ra,0(sp)
      cc:	00812183          	lw	gp,8(sp)
      d0:	00c12203          	lw	tp,12(sp)
      d4:	01012283          	lw	t0,16(sp)
      d8:	01412303          	lw	t1,20(sp)
      dc:	01812383          	lw	t2,24(sp)
      e0:	01c12403          	lw	s0,28(sp)
      e4:	02012483          	lw	s1,32(sp)
      e8:	02412503          	lw	a0,36(sp)
      ec:	02812583          	lw	a1,40(sp)
      f0:	02c12603          	lw	a2,44(sp)
      f4:	03012683          	lw	a3,48(sp)
      f8:	03412703          	lw	a4,52(sp)
      fc:	03812783          	lw	a5,56(sp)
     100:	03c12803          	lw	a6,60(sp)
     104:	04012883          	lw	a7,64(sp)
     108:	04412903          	lw	s2,68(sp)
     10c:	04812983          	lw	s3,72(sp)
     110:	04c12a03          	lw	s4,76(sp)
     114:	05012a83          	lw	s5,80(sp)
     118:	05412b03          	lw	s6,84(sp)
     11c:	05812b83          	lw	s7,88(sp)
     120:	05c12c03          	lw	s8,92(sp)
     124:	06012c83          	lw	s9,96(sp)
     128:	06412d03          	lw	s10,100(sp)
     12c:	06812d83          	lw	s11,104(sp)
     130:	06c12e03          	lw	t3,108(sp)
     134:	07012e83          	lw	t4,112(sp)
     138:	07412f03          	lw	t5,116(sp)
     13c:	07812f83          	lw	t6,120(sp)
     140:	08010113          	addi	sp,sp,128
     144:	30200073          	mret

00000148 <_start>:
     148:	30401073          	csrw	mie,zero
     14c:	00104117          	auipc	sp,0x104
     150:	40810113          	addi	sp,sp,1032 # 104554 <_stack_end>
     154:	00003197          	auipc	gp,0x3
     158:	8ad18193          	addi	gp,gp,-1875 # 2a01 <__global_pointer>
     15c:	00002517          	auipc	a0,0x2
     160:	ff050513          	addi	a0,a0,-16 # 214c <welcome_msg>
     164:	00400893          	li	a7,4
     168:	00000073          	ecall
     16c:	341010ef          	jal	1cac <main>

00000170 <loop>:
     170:	0000006f          	j	170 <loop>

00000174 <enable_interrupt>:
     174:	30486073          	csrsi	mie,16
     178:	3048e073          	csrsi	mie,17
     17c:	3001e073          	csrsi	mstatus,3
     180:	00008067          	ret

00000184 <display_string>:
     184:	00400893          	li	a7,4
     188:	00000073          	ecall
     18c:	00a00513          	li	a0,10
     190:	00b00893          	li	a7,11
     194:	00000073          	ecall
     198:	00008067          	ret

0000019c <timetemplate>:
     19c:	00002517          	auipc	a0,0x2
     1a0:	04850513          	addi	a0,a0,72 # 21e4 <timstr>
     1a4:	fe1ff0ef          	jal	184 <display_string>
     1a8:	00200513          	li	a0,2
     1ac:	16c000ef          	jal	318 <delay>
     1b0:	00002517          	auipc	a0,0x2
     1b4:	03050513          	addi	a0,a0,48 # 21e0 <mytime>
     1b8:	020000ef          	jal	1d8 <tick>
     1bc:	00002517          	auipc	a0,0x2
     1c0:	02850513          	addi	a0,a0,40 # 21e4 <timstr>
     1c4:	00002297          	auipc	t0,0x2
     1c8:	01c28293          	addi	t0,t0,28 # 21e0 <mytime>
     1cc:	0002a583          	lw	a1,0(t0)
     1d0:	080000ef          	jal	250 <time2string>
     1d4:	fc9ff06f          	j	19c <timetemplate>

000001d8 <tick>:
     1d8:	00052283          	lw	t0,0(a0)
     1dc:	00128293          	addi	t0,t0,1
     1e0:	00f2f313          	andi	t1,t0,15
     1e4:	00a33393          	sltiu	t2,t1,10
     1e8:	06039063          	bnez	t2,248 <tiend>
     1ec:	00628293          	addi	t0,t0,6
     1f0:	0f02f313          	andi	t1,t0,240
     1f4:	06033393          	sltiu	t2,t1,96
     1f8:	04039863          	bnez	t2,248 <tiend>
     1fc:	0a028293          	addi	t0,t0,160
     200:	00f00e13          	li	t3,15
     204:	008e1e13          	slli	t3,t3,0x8
     208:	01c2f333          	and	t1,t0,t3
     20c:	00a00e13          	li	t3,10
     210:	008e1e13          	slli	t3,t3,0x8
     214:	01c323b3          	slt	t2,t1,t3
     218:	02039863          	bnez	t2,248 <tiend>
     21c:	60028293          	addi	t0,t0,1536
     220:	00f00e13          	li	t3,15
     224:	00ce1e13          	slli	t3,t3,0xc
     228:	01c2f333          	and	t1,t0,t3
     22c:	00600e13          	li	t3,6
     230:	00ce1e13          	slli	t3,t3,0xc
     234:	01c323b3          	slt	t2,t1,t3
     238:	00039863          	bnez	t2,248 <tiend>
     23c:	00a00e13          	li	t3,10
     240:	00ce1e13          	slli	t3,t3,0xc
     244:	01c282b3          	add	t0,t0,t3

00000248 <tiend>:
     248:	00552023          	sw	t0,0(a0)
     24c:	00008067          	ret

00000250 <time2string>:
     250:	ff010113          	addi	sp,sp,-16
     254:	00112623          	sw	ra,12(sp)
     258:	00a12423          	sw	a0,8(sp)
     25c:	00b12223          	sw	a1,4(sp)
     260:	00412283          	lw	t0,4(sp)
     264:	00f2f293          	andi	t0,t0,15
     268:	00028513          	mv	a0,t0
     26c:	08c000ef          	jal	2f8 <hexasc>
     270:	00812303          	lw	t1,8(sp)
     274:	00a30223          	sb	a0,4(t1) # 80000004 <_stack_end+0x7fefbab0>
     278:	00412283          	lw	t0,4(sp)
     27c:	0042d293          	srli	t0,t0,0x4
     280:	00f2f293          	andi	t0,t0,15
     284:	00028513          	mv	a0,t0
     288:	070000ef          	jal	2f8 <hexasc>
     28c:	00812303          	lw	t1,8(sp)
     290:	00a301a3          	sb	a0,3(t1)
     294:	00812303          	lw	t1,8(sp)
     298:	03a00293          	li	t0,58
     29c:	00530123          	sb	t0,2(t1)
     2a0:	00412283          	lw	t0,4(sp)
     2a4:	0082d293          	srli	t0,t0,0x8
     2a8:	00f2f293          	andi	t0,t0,15
     2ac:	00028513          	mv	a0,t0
     2b0:	048000ef          	jal	2f8 <hexasc>
     2b4:	00812303          	lw	t1,8(sp)
     2b8:	00a300a3          	sb	a0,1(t1)
     2bc:	00412283          	lw	t0,4(sp)
     2c0:	00c2d293          	srli	t0,t0,0xc
     2c4:	00f2f293          	andi	t0,t0,15
     2c8:	00028513          	mv	a0,t0
     2cc:	02c000ef          	jal	2f8 <hexasc>
     2d0:	00812303          	lw	t1,8(sp)
     2d4:	00a30023          	sb	a0,0(t1)
     2d8:	00812303          	lw	t1,8(sp)
     2dc:	00000293          	li	t0,0
     2e0:	005302a3          	sb	t0,5(t1)
     2e4:	00412583          	lw	a1,4(sp)
     2e8:	00812503          	lw	a0,8(sp)
     2ec:	00c12083          	lw	ra,12(sp)
     2f0:	01010113          	addi	sp,sp,16
     2f4:	00008067          	ret

000002f8 <hexasc>:
     2f8:	00a52293          	slti	t0,a0,10
     2fc:	00029a63          	bnez	t0,310 <lessThen10>
     300:	00a38393          	addi	t2,t2,10
     304:	40750533          	sub	a0,a0,t2
     308:	04150513          	addi	a0,a0,65
     30c:	00008067          	ret

00000310 <lessThen10>:
     310:	03050513          	addi	a0,a0,48
     314:	00008067          	ret

00000318 <delay>:
     318:	ff010113          	addi	sp,sp,-16
     31c:	00112423          	sw	ra,8(sp)
     320:	00a12223          	sw	a0,4(sp)
     324:	00050293          	mv	t0,a0

00000328 <whileloop>:
     328:	02505063          	blez	t0,348 <restore>
     32c:	fff28293          	addi	t0,t0,-1
     330:	00000313          	li	t1,0
     334:	0000c3b7          	lui	t2,0xc
     338:	35038393          	addi	t2,t2,848 # c350 <vga_base+0x7e00>

0000033c <forloop>:
     33c:	fe7356e3          	bge	t1,t2,328 <whileloop>
     340:	00130313          	addi	t1,t1,1
     344:	ff9ff06f          	j	33c <forloop>

00000348 <restore>:
     348:	00812083          	lw	ra,8(sp)
     34c:	00412503          	lw	a0,4(sp)
     350:	01010113          	addi	sp,sp,16
     354:	00008067          	ret

00000358 <get_sw>:
     358:	040007b7          	lui	a5,0x4000
     35c:	0107a503          	lw	a0,16(a5) # 4000010 <_stack_end+0x3efbabc>
     360:	3ff57513          	andi	a0,a0,1023
     364:	00008067          	ret

00000368 <get_btn>:
     368:	040007b7          	lui	a5,0x4000
     36c:	0d07a503          	lw	a0,208(a5) # 40000d0 <_stack_end+0x3efbb7c>
     370:	00157513          	andi	a0,a0,1
     374:	00008067          	ret

00000378 <drawPixel>:
     378:	14053793          	sltiu	a5,a0,320
     37c:	02078463          	beqz	a5,3a4 <drawPixel+0x2c>
     380:	0f05b793          	sltiu	a5,a1,240
     384:	02078063          	beqz	a5,3a4 <drawPixel+0x2c>
     388:	00259793          	slli	a5,a1,0x2
     38c:	00b787b3          	add	a5,a5,a1
     390:	00679793          	slli	a5,a5,0x6
     394:	00a787b3          	add	a5,a5,a0
     398:	08000737          	lui	a4,0x8000
     39c:	00e787b3          	add	a5,a5,a4
     3a0:	00c78023          	sb	a2,0(a5)
     3a4:	00008067          	ret

000003a8 <fillRect>:
     3a8:	04d05c63          	blez	a3,400 <fillRect+0x58>
     3ac:	04c05a63          	blez	a2,400 <fillRect+0x58>
     3b0:	00259e13          	slli	t3,a1,0x2
     3b4:	00be0e33          	add	t3,t3,a1
     3b8:	00d58eb3          	add	t4,a1,a3
     3bc:	00c508b3          	add	a7,a0,a2
     3c0:	006e1e13          	slli	t3,t3,0x6
     3c4:	08000f37          	lui	t5,0x8000
     3c8:	0f05b313          	sltiu	t1,a1,240
     3cc:	00134313          	xori	t1,t1,1
     3d0:	00050793          	mv	a5,a0
     3d4:	01ee0833          	add	a6,t3,t5
     3d8:	1407b693          	sltiu	a3,a5,320
     3dc:	00f80633          	add	a2,a6,a5
     3e0:	00178793          	addi	a5,a5,1
     3e4:	00068663          	beqz	a3,3f0 <fillRect+0x48>
     3e8:	00031463          	bnez	t1,3f0 <fillRect+0x48>
     3ec:	00e60023          	sb	a4,0(a2)
     3f0:	ff17c4e3          	blt	a5,a7,3d8 <fillRect+0x30>
     3f4:	00158593          	addi	a1,a1,1
     3f8:	140e0e13          	addi	t3,t3,320
     3fc:	fdd5c6e3          	blt	a1,t4,3c8 <fillRect+0x20>
     400:	00008067          	ret

00000404 <clearScreen>:
     404:	08000737          	lui	a4,0x8000
     408:	080136b7          	lui	a3,0x8013
     40c:	14070713          	addi	a4,a4,320 # 8000140 <_stack_end+0x7efbbec>
     410:	d4068693          	addi	a3,a3,-704 # 8012d40 <_stack_end+0x7f0e7ec>
     414:	ec070793          	addi	a5,a4,-320
     418:	00078023          	sb	zero,0(a5)
     41c:	00178793          	addi	a5,a5,1
     420:	fee79ce3          	bne	a5,a4,418 <clearScreen+0x14>
     424:	14078713          	addi	a4,a5,320
     428:	fed716e3          	bne	a4,a3,414 <clearScreen+0x10>
     42c:	00008067          	ret

00000430 <set_displays>:
     430:	000047b7          	lui	a5,0x4
     434:	3d878793          	addi	a5,a5,984 # 43d8 <apples+0x94>
     438:	0107a683          	lw	a3,16(a5)
     43c:	0147a703          	lw	a4,20(a5)
     440:	0007a303          	lw	t1,0(a5)
     444:	0047a883          	lw	a7,4(a5)
     448:	0087a803          	lw	a6,8(a5)
     44c:	00c7a603          	lw	a2,12(a5)
     450:	fa010113          	addi	sp,sp,-96
     454:	00d12c23          	sw	a3,24(sp)
     458:	00e12e23          	sw	a4,28(sp)
     45c:	00612423          	sw	t1,8(sp)
     460:	01878713          	addi	a4,a5,24
     464:	01112623          	sw	a7,12(sp)
     468:	01012823          	sw	a6,16(sp)
     46c:	00c12a23          	sw	a2,20(sp)
     470:	05878793          	addi	a5,a5,88
     474:	02010693          	addi	a3,sp,32
     478:	00072303          	lw	t1,0(a4)
     47c:	00472883          	lw	a7,4(a4)
     480:	00872803          	lw	a6,8(a4)
     484:	00c72603          	lw	a2,12(a4)
     488:	0066a023          	sw	t1,0(a3)
     48c:	0116a223          	sw	a7,4(a3)
     490:	0106a423          	sw	a6,8(a3)
     494:	00c6a623          	sw	a2,12(a3)
     498:	01070713          	addi	a4,a4,16
     49c:	01068693          	addi	a3,a3,16
     4a0:	fcf71ce3          	bne	a4,a5,478 <set_displays+0x48>
     4a4:	fd058593          	addi	a1,a1,-48
     4a8:	0ff5f793          	zext.b	a5,a1
     4ac:	02300713          	li	a4,35
     4b0:	00f76e63          	bltu	a4,a5,4cc <set_displays+0x9c>
     4b4:	00004737          	lui	a4,0x4
     4b8:	00279793          	slli	a5,a5,0x2
     4bc:	34870713          	addi	a4,a4,840 # 4348 <apples+0x4>
     4c0:	00e787b3          	add	a5,a5,a4
     4c4:	0007a783          	lw	a5,0(a5)
     4c8:	00078067          	jr	a5
     4cc:	0ff00793          	li	a5,255
     4d0:	00251513          	slli	a0,a0,0x2
     4d4:	00250533          	add	a0,a0,sp
     4d8:	00852703          	lw	a4,8(a0)
     4dc:	00f72023          	sw	a5,0(a4)
     4e0:	06010113          	addi	sp,sp,96
     4e4:	00008067          	ret
     4e8:	00259593          	slli	a1,a1,0x2
     4ec:	00251513          	slli	a0,a0,0x2
     4f0:	00b107b3          	add	a5,sp,a1
     4f4:	00250533          	add	a0,a0,sp
     4f8:	0207a783          	lw	a5,32(a5)
     4fc:	00852703          	lw	a4,8(a0)
     500:	00f72023          	sw	a5,0(a4)
     504:	06010113          	addi	sp,sp,96
     508:	00008067          	ret
     50c:	00251513          	slli	a0,a0,0x2
     510:	00250533          	add	a0,a0,sp
     514:	00852703          	lw	a4,8(a0)
     518:	01200793          	li	a5,18
     51c:	00f72023          	sw	a5,0(a4)
     520:	06010113          	addi	sp,sp,96
     524:	00008067          	ret
     528:	00251513          	slli	a0,a0,0x2
     52c:	00250533          	add	a0,a0,sp
     530:	00852703          	lw	a4,8(a0)
     534:	04800793          	li	a5,72
     538:	00f72023          	sw	a5,0(a4)
     53c:	06010113          	addi	sp,sp,96
     540:	00008067          	ret
     544:	00251513          	slli	a0,a0,0x2
     548:	00250533          	add	a0,a0,sp
     54c:	00852703          	lw	a4,8(a0)
     550:	0f900793          	li	a5,249
     554:	00f72023          	sw	a5,0(a4)
     558:	06010113          	addi	sp,sp,96
     55c:	00008067          	ret
     560:	00251513          	slli	a0,a0,0x2
     564:	00250533          	add	a0,a0,sp
     568:	00852703          	lw	a4,8(a0)
     56c:	00900793          	li	a5,9
     570:	00f72023          	sw	a5,0(a4)
     574:	06010113          	addi	sp,sp,96
     578:	00008067          	ret
     57c:	00e00793          	li	a5,14
     580:	f51ff06f          	j	4d0 <set_displays+0xa0>

00000584 <gameOver>:
     584:	f9010113          	addi	sp,sp,-112
     588:	08000737          	lui	a4,0x8000
     58c:	080136b7          	lui	a3,0x8013
     590:	06112623          	sw	ra,108(sp)
     594:	06812423          	sw	s0,104(sp)
     598:	06912223          	sw	s1,100(sp)
     59c:	07212023          	sw	s2,96(sp)
     5a0:	05312e23          	sw	s3,92(sp)
     5a4:	05412c23          	sw	s4,88(sp)
     5a8:	05512a23          	sw	s5,84(sp)
     5ac:	05612823          	sw	s6,80(sp)
     5b0:	05712623          	sw	s7,76(sp)
     5b4:	05812423          	sw	s8,72(sp)
     5b8:	05912223          	sw	s9,68(sp)
     5bc:	05a12023          	sw	s10,64(sp)
     5c0:	03b12e23          	sw	s11,60(sp)
     5c4:	14070713          	addi	a4,a4,320 # 8000140 <_stack_end+0x7efbbec>
     5c8:	d4068693          	addi	a3,a3,-704 # 8012d40 <_stack_end+0x7f0e7ec>
     5cc:	ec070793          	addi	a5,a4,-320
     5d0:	00078023          	sb	zero,0(a5)
     5d4:	00178793          	addi	a5,a5,1
     5d8:	fee79ce3          	bne	a5,a4,5d0 <gameOver+0x4c>
     5dc:	14078713          	addi	a4,a5,320
     5e0:	fed716e3          	bne	a4,a3,5cc <gameOver+0x48>
     5e4:	00004537          	lui	a0,0x4
     5e8:	08007437          	lui	s0,0x8007
     5ec:	3d850513          	addi	a0,a0,984 # 43d8 <apples+0x94>
     5f0:	00004637          	lui	a2,0x4
     5f4:	00004837          	lui	a6,0x4
     5f8:	08008c37          	lui	s8,0x8008
     5fc:	08007bb7          	lui	s7,0x8007
     600:	08007b37          	lui	s6,0x8007
     604:	08007ab7          	lui	s5,0x8007
     608:	08007a37          	lui	s4,0x8007
     60c:	080079b7          	lui	s3,0x8007
     610:	08007937          	lui	s2,0x8007
     614:	080084b7          	lui	s1,0x8008
     618:	08008e37          	lui	t3,0x8008
     61c:	58340393          	addi	t2,s0,1411 # 8007583 <_stack_end+0x7f0302f>
     620:	44340293          	addi	t0,s0,1091
     624:	30340f93          	addi	t6,s0,771
     628:	1c340f13          	addi	t5,s0,451
     62c:	08340e93          	addi	t4,s0,131
     630:	6c240313          	addi	t1,s0,1730
     634:	58240893          	addi	a7,s0,1410
     638:	44240593          	addi	a1,s0,1090
     63c:	05850c93          	addi	s9,a0,88
     640:	4b460613          	addi	a2,a2,1204 # 44b4 <FONT_CHARS+0x18>
     644:	49c80813          	addi	a6,a6,1180 # 449c <FONT_CHARS>
     648:	804c0c13          	addi	s8,s8,-2044 # 8007804 <_stack_end+0x7f032b0>
     64c:	6c4b8b93          	addi	s7,s7,1732 # 80076c4 <_stack_end+0x7f03170>
     650:	584b0b13          	addi	s6,s6,1412 # 8007584 <_stack_end+0x7f03030>
     654:	444a8a93          	addi	s5,s5,1092 # 8007444 <_stack_end+0x7f02ef0>
     658:	304a0a13          	addi	s4,s4,772 # 8007304 <_stack_end+0x7f02db0>
     65c:	1c498993          	addi	s3,s3,452 # 80071c4 <_stack_end+0x7f02c70>
     660:	08490913          	addi	s2,s2,132 # 8007084 <_stack_end+0x7f02b30>
     664:	80348493          	addi	s1,s1,-2045 # 8007803 <_stack_end+0x7f032af>
     668:	6c340413          	addi	s0,s0,1731
     66c:	802e0e13          	addi	t3,t3,-2046 # 8007802 <_stack_end+0x7f032ae>
     670:	04700d93          	li	s11,71
     674:	06400793          	li	a5,100
     678:	fff00713          	li	a4,-1
     67c:	0c550693          	addi	a3,a0,197
     680:	04100d13          	li	s10,65
     684:	27bd0c63          	beq	s10,s11,8fc <__heap_size+0xfc>
     688:	0006cd03          	lbu	s10,0(a3)
     68c:	00168693          	addi	a3,a3,1
     690:	fe0d1ae3          	bnez	s10,684 <gameOver+0x100>
     694:	00678793          	addi	a5,a5,6
     698:	09a00693          	li	a3,154
     69c:	00160613          	addi	a2,a2,1
     6a0:	00064d83          	lbu	s11,0(a2)
     6a4:	fcd79ce3          	bne	a5,a3,67c <gameOver+0xf8>
     6a8:	000047b7          	lui	a5,0x4
     6ac:	3407a683          	lw	a3,832(a5) # 4340 <applesEaten>
     6b0:	54068263          	beqz	a3,bf4 <__heap_size+0x3f4>
     6b4:	ccccd737          	lui	a4,0xccccd
     6b8:	ccd70713          	addi	a4,a4,-819 # cccccccd <_stack_end+0xccbc8779>
     6bc:	02e6b7b3          	mulhu	a5,a3,a4
     6c0:	00900593          	li	a1,9
     6c4:	0037d793          	srli	a5,a5,0x3
     6c8:	00279613          	slli	a2,a5,0x2
     6cc:	00f60633          	add	a2,a2,a5
     6d0:	00161613          	slli	a2,a2,0x1
     6d4:	40c68633          	sub	a2,a3,a2
     6d8:	03060613          	addi	a2,a2,48
     6dc:	02c10223          	sb	a2,36(sp)
     6e0:	34d5f0e3          	bgeu	a1,a3,1220 <__heap_size+0xa20>
     6e4:	02e7b5b3          	mulhu	a1,a5,a4
     6e8:	06300313          	li	t1,99
     6ec:	0035d593          	srli	a1,a1,0x3
     6f0:	00259893          	slli	a7,a1,0x2
     6f4:	00b888b3          	add	a7,a7,a1
     6f8:	00189893          	slli	a7,a7,0x1
     6fc:	411787b3          	sub	a5,a5,a7
     700:	03078793          	addi	a5,a5,48
     704:	02f102a3          	sb	a5,37(sp)
     708:	32d372e3          	bgeu	t1,a3,122c <__heap_size+0xa2c>
     70c:	02e5b8b3          	mulhu	a7,a1,a4
     710:	3e700313          	li	t1,999
     714:	0038d893          	srli	a7,a7,0x3
     718:	00289793          	slli	a5,a7,0x2
     71c:	011787b3          	add	a5,a5,a7
     720:	00179793          	slli	a5,a5,0x1
     724:	40f587b3          	sub	a5,a1,a5
     728:	03078793          	addi	a5,a5,48
     72c:	02f10323          	sb	a5,38(sp)
     730:	2cd37ae3          	bgeu	t1,a3,1204 <__heap_size+0xa04>
     734:	02e8b5b3          	mulhu	a1,a7,a4
     738:	00002337          	lui	t1,0x2
     73c:	70f30313          	addi	t1,t1,1807 # 270f <map+0x4ef>
     740:	0035d593          	srli	a1,a1,0x3
     744:	00259793          	slli	a5,a1,0x2
     748:	00b787b3          	add	a5,a5,a1
     74c:	00179793          	slli	a5,a5,0x1
     750:	40f887b3          	sub	a5,a7,a5
     754:	03078793          	addi	a5,a5,48
     758:	02f103a3          	sb	a5,39(sp)
     75c:	2ed376e3          	bgeu	t1,a3,1248 <__heap_size+0xa48>
     760:	02e5b8b3          	mulhu	a7,a1,a4
     764:	00018337          	lui	t1,0x18
     768:	69f30313          	addi	t1,t1,1695 # 1869f <vga_base+0x1414f>
     76c:	0038d893          	srli	a7,a7,0x3
     770:	00289793          	slli	a5,a7,0x2
     774:	011787b3          	add	a5,a5,a7
     778:	00179793          	slli	a5,a5,0x1
     77c:	40f587b3          	sub	a5,a1,a5
     780:	03078793          	addi	a5,a5,48
     784:	02f10423          	sb	a5,40(sp)
     788:	2ed370e3          	bgeu	t1,a3,1268 <__heap_size+0xa68>
     78c:	02e8b5b3          	mulhu	a1,a7,a4
     790:	000f4337          	lui	t1,0xf4
     794:	23f30313          	addi	t1,t1,575 # f423f <vga_base+0xefcef>
     798:	0035d593          	srli	a1,a1,0x3
     79c:	00259793          	slli	a5,a1,0x2
     7a0:	00b787b3          	add	a5,a5,a1
     7a4:	00179793          	slli	a5,a5,0x1
     7a8:	40f887b3          	sub	a5,a7,a5
     7ac:	03078793          	addi	a5,a5,48
     7b0:	02f104a3          	sb	a5,41(sp)
     7b4:	2cd376e3          	bgeu	t1,a3,1280 <__heap_size+0xa80>
     7b8:	02e5b7b3          	mulhu	a5,a1,a4
     7bc:	00989337          	lui	t1,0x989
     7c0:	67f30313          	addi	t1,t1,1663 # 98967f <_stack_end+0x88512b>
     7c4:	0037d793          	srli	a5,a5,0x3
     7c8:	00279893          	slli	a7,a5,0x2
     7cc:	00f888b3          	add	a7,a7,a5
     7d0:	00189893          	slli	a7,a7,0x1
     7d4:	411585b3          	sub	a1,a1,a7
     7d8:	03058593          	addi	a1,a1,48
     7dc:	02b10523          	sb	a1,42(sp)
     7e0:	2ad37ce3          	bgeu	t1,a3,1298 <__heap_size+0xa98>
     7e4:	02e7b733          	mulhu	a4,a5,a4
     7e8:	05f5e8b7          	lui	a7,0x5f5e
     7ec:	0ff88893          	addi	a7,a7,255 # 5f5e0ff <_stack_end+0x5e59bab>
     7f0:	00375713          	srli	a4,a4,0x3
     7f4:	00271593          	slli	a1,a4,0x2
     7f8:	00e58733          	add	a4,a1,a4
     7fc:	00171713          	slli	a4,a4,0x1
     800:	40e78733          	sub	a4,a5,a4
     804:	03070713          	addi	a4,a4,48
     808:	02e105a3          	sb	a4,43(sp)
     80c:	2ad8f2e3          	bgeu	a7,a3,12b0 <__heap_size+0xab0>
     810:	ccccd737          	lui	a4,0xccccd
     814:	ccd70713          	addi	a4,a4,-819 # cccccccd <_stack_end+0xccbc8779>
     818:	02e7b7b3          	mulhu	a5,a5,a4
     81c:	3b9ad8b7          	lui	a7,0x3b9ad
     820:	9ff88893          	addi	a7,a7,-1537 # 3b9ac9ff <_stack_end+0x3b8a84ab>
     824:	0037d793          	srli	a5,a5,0x3
     828:	02e7b733          	mulhu	a4,a5,a4
     82c:	00375713          	srli	a4,a4,0x3
     830:	00271593          	slli	a1,a4,0x2
     834:	00e585b3          	add	a1,a1,a4
     838:	00159593          	slli	a1,a1,0x1
     83c:	40b787b3          	sub	a5,a5,a1
     840:	03078793          	addi	a5,a5,48
     844:	02f10623          	sb	a5,44(sp)
     848:	28d8f0e3          	bgeu	a7,a3,12c8 <__heap_size+0xac8>
     84c:	03070713          	addi	a4,a4,48
     850:	00e10c23          	sb	a4,24(sp)
     854:	02b14703          	lbu	a4,43(sp)
     858:	00f10ca3          	sb	a5,25(sp)
     85c:	00a00793          	li	a5,10
     860:	01010593          	addi	a1,sp,16
     864:	00b786b3          	add	a3,a5,a1
     868:	0106c683          	lbu	a3,16(a3)
     86c:	00e10d23          	sb	a4,26(sp)
     870:	ffc78713          	addi	a4,a5,-4
     874:	00d10da3          	sb	a3,27(sp)
     878:	1c0704e3          	beqz	a4,1240 <__heap_size+0xa40>
     87c:	00b786b3          	add	a3,a5,a1
     880:	00f6c683          	lbu	a3,15(a3)
     884:	ffb78713          	addi	a4,a5,-5
     888:	00d10e23          	sb	a3,28(sp)
     88c:	24070ae3          	beqz	a4,12e0 <__heap_size+0xae0>
     890:	00b786b3          	add	a3,a5,a1
     894:	00e6c683          	lbu	a3,14(a3)
     898:	ffa78713          	addi	a4,a5,-6
     89c:	00d10ea3          	sb	a3,29(sp)
     8a0:	240704e3          	beqz	a4,12e8 <__heap_size+0xae8>
     8a4:	00b786b3          	add	a3,a5,a1
     8a8:	00d6c683          	lbu	a3,13(a3)
     8ac:	ff978713          	addi	a4,a5,-7
     8b0:	00d10f23          	sb	a3,30(sp)
     8b4:	22070ee3          	beqz	a4,12f0 <__heap_size+0xaf0>
     8b8:	00b786b3          	add	a3,a5,a1
     8bc:	00c6c683          	lbu	a3,12(a3)
     8c0:	ff878713          	addi	a4,a5,-8
     8c4:	00d10fa3          	sb	a3,31(sp)
     8c8:	220708e3          	beqz	a4,12f8 <__heap_size+0xaf8>
     8cc:	00078713          	mv	a4,a5
     8d0:	00b70733          	add	a4,a4,a1
     8d4:	00b74703          	lbu	a4,11(a4)
     8d8:	ff778793          	addi	a5,a5,-9
     8dc:	02e10023          	sb	a4,32(sp)
     8e0:	180780e3          	beqz	a5,1260 <__heap_size+0xa60>
     8e4:	02c100a3          	sb	a2,33(sp)
     8e8:	00a00793          	li	a5,10
     8ec:	002787b3          	add	a5,a5,sp
     8f0:	00078c23          	sb	zero,24(a5)
     8f4:	01814583          	lbu	a1,24(sp)
     8f8:	3040006f          	j	bfc <__heap_size+0x3fc>
     8fc:	410686b3          	sub	a3,a3,a6
     900:	fff68693          	addi	a3,a3,-1
     904:	00269d13          	slli	s10,a3,0x2
     908:	00dd06b3          	add	a3,s10,a3
     90c:	00dc86b3          	add	a3,s9,a3
     910:	0006cd03          	lbu	s10,0(a3)
     914:	001d7d93          	andi	s11,s10,1
     918:	000d8a63          	beqz	s11,92c <__heap_size+0x12c>
     91c:	08007db7          	lui	s11,0x8007
     920:	080d8d93          	addi	s11,s11,128 # 8007080 <_stack_end+0x7f02b2c>
     924:	01b78db3          	add	s11,a5,s11
     928:	00ed8023          	sb	a4,0(s11)
     92c:	002d7d93          	andi	s11,s10,2
     930:	000d8a63          	beqz	s11,944 <__heap_size+0x144>
     934:	08007db7          	lui	s11,0x8007
     938:	1c0d8d93          	addi	s11,s11,448 # 80071c0 <_stack_end+0x7f02c6c>
     93c:	01b78db3          	add	s11,a5,s11
     940:	00ed8023          	sb	a4,0(s11)
     944:	004d7d93          	andi	s11,s10,4
     948:	000d8a63          	beqz	s11,95c <__heap_size+0x15c>
     94c:	08007db7          	lui	s11,0x8007
     950:	300d8d93          	addi	s11,s11,768 # 8007300 <_stack_end+0x7f02dac>
     954:	01b78db3          	add	s11,a5,s11
     958:	00ed8023          	sb	a4,0(s11)
     95c:	008d7d93          	andi	s11,s10,8
     960:	000d8a63          	beqz	s11,974 <__heap_size+0x174>
     964:	08007db7          	lui	s11,0x8007
     968:	440d8d93          	addi	s11,s11,1088 # 8007440 <_stack_end+0x7f02eec>
     96c:	01b78db3          	add	s11,a5,s11
     970:	00ed8023          	sb	a4,0(s11)
     974:	010d7d93          	andi	s11,s10,16
     978:	000d8a63          	beqz	s11,98c <__heap_size+0x18c>
     97c:	08007db7          	lui	s11,0x8007
     980:	580d8d93          	addi	s11,s11,1408 # 8007580 <_stack_end+0x7f0302c>
     984:	01b78db3          	add	s11,a5,s11
     988:	00ed8023          	sb	a4,0(s11)
     98c:	020d7d93          	andi	s11,s10,32
     990:	000d8a63          	beqz	s11,9a4 <__heap_size+0x1a4>
     994:	08007db7          	lui	s11,0x8007
     998:	6c0d8d93          	addi	s11,s11,1728 # 80076c0 <_stack_end+0x7f0316c>
     99c:	01b78db3          	add	s11,a5,s11
     9a0:	00ed8023          	sb	a4,0(s11)
     9a4:	040d7d13          	andi	s10,s10,64
     9a8:	000d0a63          	beqz	s10,9bc <__heap_size+0x1bc>
     9ac:	08008d37          	lui	s10,0x8008
     9b0:	800d0d13          	addi	s10,s10,-2048 # 8007800 <_stack_end+0x7f032ac>
     9b4:	01a78d33          	add	s10,a5,s10
     9b8:	00ed0023          	sb	a4,0(s10)
     9bc:	0016cd03          	lbu	s10,1(a3)
     9c0:	001d7d93          	andi	s11,s10,1
     9c4:	000d8a63          	beqz	s11,9d8 <__heap_size+0x1d8>
     9c8:	08007db7          	lui	s11,0x8007
     9cc:	081d8d93          	addi	s11,s11,129 # 8007081 <_stack_end+0x7f02b2d>
     9d0:	01b78db3          	add	s11,a5,s11
     9d4:	00ed8023          	sb	a4,0(s11)
     9d8:	002d7d93          	andi	s11,s10,2
     9dc:	000d8a63          	beqz	s11,9f0 <__heap_size+0x1f0>
     9e0:	08007db7          	lui	s11,0x8007
     9e4:	1c1d8d93          	addi	s11,s11,449 # 80071c1 <_stack_end+0x7f02c6d>
     9e8:	01b78db3          	add	s11,a5,s11
     9ec:	00ed8023          	sb	a4,0(s11)
     9f0:	004d7d93          	andi	s11,s10,4
     9f4:	000d8a63          	beqz	s11,a08 <__heap_size+0x208>
     9f8:	08007db7          	lui	s11,0x8007
     9fc:	301d8d93          	addi	s11,s11,769 # 8007301 <_stack_end+0x7f02dad>
     a00:	01b78db3          	add	s11,a5,s11
     a04:	00ed8023          	sb	a4,0(s11)
     a08:	008d7d93          	andi	s11,s10,8
     a0c:	000d8a63          	beqz	s11,a20 <__heap_size+0x220>
     a10:	08007db7          	lui	s11,0x8007
     a14:	441d8d93          	addi	s11,s11,1089 # 8007441 <_stack_end+0x7f02eed>
     a18:	01b78db3          	add	s11,a5,s11
     a1c:	00ed8023          	sb	a4,0(s11)
     a20:	010d7d93          	andi	s11,s10,16
     a24:	000d8a63          	beqz	s11,a38 <__heap_size+0x238>
     a28:	08007db7          	lui	s11,0x8007
     a2c:	581d8d93          	addi	s11,s11,1409 # 8007581 <_stack_end+0x7f0302d>
     a30:	01b78db3          	add	s11,a5,s11
     a34:	00ed8023          	sb	a4,0(s11)
     a38:	020d7d93          	andi	s11,s10,32
     a3c:	000d8a63          	beqz	s11,a50 <__heap_size+0x250>
     a40:	08007db7          	lui	s11,0x8007
     a44:	6c1d8d93          	addi	s11,s11,1729 # 80076c1 <_stack_end+0x7f0316d>
     a48:	01b78db3          	add	s11,a5,s11
     a4c:	00ed8023          	sb	a4,0(s11)
     a50:	040d7d13          	andi	s10,s10,64
     a54:	000d0a63          	beqz	s10,a68 <__heap_size+0x268>
     a58:	08008d37          	lui	s10,0x8008
     a5c:	801d0d13          	addi	s10,s10,-2047 # 8007801 <_stack_end+0x7f032ad>
     a60:	01a78d33          	add	s10,a5,s10
     a64:	00ed0023          	sb	a4,0(s10)
     a68:	0026cd03          	lbu	s10,2(a3)
     a6c:	001d7d93          	andi	s11,s10,1
     a70:	000d8a63          	beqz	s11,a84 <__heap_size+0x284>
     a74:	08007db7          	lui	s11,0x8007
     a78:	082d8d93          	addi	s11,s11,130 # 8007082 <_stack_end+0x7f02b2e>
     a7c:	01b78db3          	add	s11,a5,s11
     a80:	00ed8023          	sb	a4,0(s11)
     a84:	002d7d93          	andi	s11,s10,2
     a88:	000d8a63          	beqz	s11,a9c <__heap_size+0x29c>
     a8c:	08007db7          	lui	s11,0x8007
     a90:	1c2d8d93          	addi	s11,s11,450 # 80071c2 <_stack_end+0x7f02c6e>
     a94:	01b78db3          	add	s11,a5,s11
     a98:	00ed8023          	sb	a4,0(s11)
     a9c:	004d7d93          	andi	s11,s10,4
     aa0:	000d8a63          	beqz	s11,ab4 <__heap_size+0x2b4>
     aa4:	08007db7          	lui	s11,0x8007
     aa8:	302d8d93          	addi	s11,s11,770 # 8007302 <_stack_end+0x7f02dae>
     aac:	01b78db3          	add	s11,a5,s11
     ab0:	00ed8023          	sb	a4,0(s11)
     ab4:	008d7d93          	andi	s11,s10,8
     ab8:	000d8663          	beqz	s11,ac4 <__heap_size+0x2c4>
     abc:	00b78db3          	add	s11,a5,a1
     ac0:	00ed8023          	sb	a4,0(s11)
     ac4:	010d7d93          	andi	s11,s10,16
     ac8:	000d8663          	beqz	s11,ad4 <__heap_size+0x2d4>
     acc:	01178db3          	add	s11,a5,a7
     ad0:	00ed8023          	sb	a4,0(s11)
     ad4:	020d7d93          	andi	s11,s10,32
     ad8:	000d8663          	beqz	s11,ae4 <__heap_size+0x2e4>
     adc:	00678db3          	add	s11,a5,t1
     ae0:	00ed8023          	sb	a4,0(s11)
     ae4:	040d7d13          	andi	s10,s10,64
     ae8:	000d0663          	beqz	s10,af4 <__heap_size+0x2f4>
     aec:	01c78d33          	add	s10,a5,t3
     af0:	00ed0023          	sb	a4,0(s10)
     af4:	0036cd03          	lbu	s10,3(a3)
     af8:	001d7d93          	andi	s11,s10,1
     afc:	000d8663          	beqz	s11,b08 <__heap_size+0x308>
     b00:	01d78db3          	add	s11,a5,t4
     b04:	00ed8023          	sb	a4,0(s11)
     b08:	002d7d93          	andi	s11,s10,2
     b0c:	000d8663          	beqz	s11,b18 <__heap_size+0x318>
     b10:	01e78db3          	add	s11,a5,t5
     b14:	00ed8023          	sb	a4,0(s11)
     b18:	004d7d93          	andi	s11,s10,4
     b1c:	000d8663          	beqz	s11,b28 <__heap_size+0x328>
     b20:	01f78db3          	add	s11,a5,t6
     b24:	00ed8023          	sb	a4,0(s11)
     b28:	008d7d93          	andi	s11,s10,8
     b2c:	000d8663          	beqz	s11,b38 <__heap_size+0x338>
     b30:	00578db3          	add	s11,a5,t0
     b34:	00ed8023          	sb	a4,0(s11)
     b38:	010d7d93          	andi	s11,s10,16
     b3c:	000d8663          	beqz	s11,b48 <__heap_size+0x348>
     b40:	00778db3          	add	s11,a5,t2
     b44:	00ed8023          	sb	a4,0(s11)
     b48:	020d7d93          	andi	s11,s10,32
     b4c:	000d8663          	beqz	s11,b58 <__heap_size+0x358>
     b50:	00878db3          	add	s11,a5,s0
     b54:	00ed8023          	sb	a4,0(s11)
     b58:	040d7d13          	andi	s10,s10,64
     b5c:	000d0663          	beqz	s10,b68 <__heap_size+0x368>
     b60:	00978d33          	add	s10,a5,s1
     b64:	00ed0023          	sb	a4,0(s10)
     b68:	0046c683          	lbu	a3,4(a3)
     b6c:	0016fd13          	andi	s10,a3,1
     b70:	000d0663          	beqz	s10,b7c <__heap_size+0x37c>
     b74:	01278d33          	add	s10,a5,s2
     b78:	00ed0023          	sb	a4,0(s10)
     b7c:	0026fd13          	andi	s10,a3,2
     b80:	000d0663          	beqz	s10,b8c <__heap_size+0x38c>
     b84:	01378d33          	add	s10,a5,s3
     b88:	00ed0023          	sb	a4,0(s10)
     b8c:	0046fd13          	andi	s10,a3,4
     b90:	000d0663          	beqz	s10,b9c <__heap_size+0x39c>
     b94:	01478d33          	add	s10,a5,s4
     b98:	00ed0023          	sb	a4,0(s10)
     b9c:	0086fd13          	andi	s10,a3,8
     ba0:	000d0663          	beqz	s10,bac <__heap_size+0x3ac>
     ba4:	01578d33          	add	s10,a5,s5
     ba8:	00ed0023          	sb	a4,0(s10)
     bac:	0106fd13          	andi	s10,a3,16
     bb0:	000d0663          	beqz	s10,bbc <__heap_size+0x3bc>
     bb4:	01678d33          	add	s10,a5,s6
     bb8:	00ed0023          	sb	a4,0(s10)
     bbc:	0206fd13          	andi	s10,a3,32
     bc0:	000d0663          	beqz	s10,bcc <__heap_size+0x3cc>
     bc4:	01778d33          	add	s10,a5,s7
     bc8:	00ed0023          	sb	a4,0(s10)
     bcc:	0406f693          	andi	a3,a3,64
     bd0:	ac0682e3          	beqz	a3,694 <gameOver+0x110>
     bd4:	018786b3          	add	a3,a5,s8
     bd8:	00e68023          	sb	a4,0(a3)
     bdc:	00678793          	addi	a5,a5,6
     be0:	09a00693          	li	a3,154
     be4:	00160613          	addi	a2,a2,1
     be8:	00064d83          	lbu	s11,0(a2)
     bec:	a8d798e3          	bne	a5,a3,67c <gameOver+0xf8>
     bf0:	ab9ff06f          	j	6a8 <gameOver+0x124>
     bf4:	03000593          	li	a1,48
     bf8:	00b11c23          	sh	a1,24(sp)
     bfc:	08009437          	lui	s0,0x8009
     c00:	c0240793          	addi	a5,s0,-1022 # 8008c02 <_stack_end+0x7f046ae>
     c04:	000048b7          	lui	a7,0x4
     c08:	08009d37          	lui	s10,0x8009
     c0c:	08009cb7          	lui	s9,0x8009
     c10:	08009c37          	lui	s8,0x8009
     c14:	08009bb7          	lui	s7,0x8009
     c18:	08009b37          	lui	s6,0x8009
     c1c:	08009ab7          	lui	s5,0x8009
     c20:	08009a37          	lui	s4,0x8009
     c24:	080099b7          	lui	s3,0x8009
     c28:	08009937          	lui	s2,0x8009
     c2c:	080094b7          	lui	s1,0x8009
     c30:	c0340393          	addi	t2,s0,-1021
     c34:	ac340293          	addi	t0,s0,-1341
     c38:	98340f93          	addi	t6,s0,-1661
     c3c:	10240f13          	addi	t5,s0,258
     c40:	fc240e93          	addi	t4,s0,-62
     c44:	e8240e13          	addi	t3,s0,-382
     c48:	d4240313          	addi	t1,s0,-702
     c4c:	00f12623          	sw	a5,12(sp)
     c50:	4c088893          	addi	a7,a7,1216 # 44c0 <FONT_CHARS+0x24>
     c54:	104d0d13          	addi	s10,s10,260 # 8009104 <_stack_end+0x7f04bb0>
     c58:	fc4c8c93          	addi	s9,s9,-60 # 8008fc4 <_stack_end+0x7f04a70>
     c5c:	e84c0c13          	addi	s8,s8,-380 # 8008e84 <_stack_end+0x7f04930>
     c60:	d44b8b93          	addi	s7,s7,-700 # 8008d44 <_stack_end+0x7f047f0>
     c64:	c04b0b13          	addi	s6,s6,-1020 # 8008c04 <_stack_end+0x7f046b0>
     c68:	ac4a8a93          	addi	s5,s5,-1340 # 8008ac4 <_stack_end+0x7f04570>
     c6c:	984a0a13          	addi	s4,s4,-1660 # 8008984 <_stack_end+0x7f04430>
     c70:	10398993          	addi	s3,s3,259 # 8009103 <_stack_end+0x7f04baf>
     c74:	fc390913          	addi	s2,s2,-61 # 8008fc3 <_stack_end+0x7f04a6f>
     c78:	e8348493          	addi	s1,s1,-381 # 8008e83 <_stack_end+0x7f0492f>
     c7c:	d4340413          	addi	s0,s0,-701
     c80:	04100d93          	li	s11,65
     c84:	06400793          	li	a5,100
     c88:	fff00713          	li	a4,-1
     c8c:	0c550693          	addi	a3,a0,197
     c90:	04100613          	li	a2,65
     c94:	11b60863          	beq	a2,s11,da4 <__heap_size+0x5a4>
     c98:	0006c603          	lbu	a2,0(a3)
     c9c:	00168693          	addi	a3,a3,1
     ca0:	fe061ae3          	bnez	a2,c94 <__heap_size+0x494>
     ca4:	00678793          	addi	a5,a5,6
     ca8:	08e00693          	li	a3,142
     cac:	00188893          	addi	a7,a7,1
     cb0:	0008cd83          	lbu	s11,0(a7)
     cb4:	fcd79ce3          	bne	a5,a3,c8c <__heap_size+0x48c>
     cb8:	f6000a13          	li	s4,-160
     cbc:	0a500893          	li	a7,165
     cc0:	01810993          	addi	s3,sp,24
     cc4:	06058463          	beqz	a1,d2c <__heap_size+0x52c>
     cc8:	08009437          	lui	s0,0x8009
     ccc:	00004337          	lui	t1,0x4
     cd0:	08009937          	lui	s2,0x8009
     cd4:	080094b7          	lui	s1,0x8009
     cd8:	d4040393          	addi	t2,s0,-704 # 8008d40 <_stack_end+0x7f047ec>
     cdc:	c0040293          	addi	t0,s0,-1024
     ce0:	ac040f93          	addi	t6,s0,-1344
     ce4:	98040f13          	addi	t5,s0,-1664
     ce8:	43030313          	addi	t1,t1,1072 # 4430 <FONT_DATA>
     cec:	10090913          	addi	s2,s2,256 # 8009100 <_stack_end+0x7f04bac>
     cf0:	fc048493          	addi	s1,s1,-64 # 8008fc0 <_stack_end+0x7f04a6c>
     cf4:	e8040413          	addi	s0,s0,-384
     cf8:	fff00613          	li	a2,-1
     cfc:	13f00693          	li	a3,319
     d00:	0c550793          	addi	a5,a0,197
     d04:	04100713          	li	a4,65
     d08:	38b70c63          	beq	a4,a1,10a0 <__heap_size+0x8a0>
     d0c:	0007c703          	lbu	a4,0(a5)
     d10:	00178793          	addi	a5,a5,1
     d14:	fe071ae3          	bnez	a4,d08 <__heap_size+0x508>
     d18:	0019c583          	lbu	a1,1(s3)
     d1c:	00198993          	addi	s3,s3,1
     d20:	00688893          	addi	a7,a7,6
     d24:	ffaa0a13          	addi	s4,s4,-6
     d28:	fc059ce3          	bnez	a1,d00 <__heap_size+0x500>
     d2c:	494e5737          	lui	a4,0x494e5
     d30:	000057b7          	lui	a5,0x5
     d34:	94670713          	addi	a4,a4,-1722 # 494e4946 <_stack_end+0x493e03f2>
     d38:	85378793          	addi	a5,a5,-1965 # 4853 <vga_base+0x303>
     d3c:	02e12223          	sw	a4,36(sp)
     d40:	02f11423          	sh	a5,40(sp)
     d44:	02010523          	sb	zero,42(sp)
     d48:	02a10913          	addi	s2,sp,42
     d4c:	02410413          	addi	s0,sp,36
     d50:	02910493          	addi	s1,sp,41
     d54:	00044583          	lbu	a1,0(s0)
     d58:	40848533          	sub	a0,s1,s0
     d5c:	00140413          	addi	s0,s0,1
     d60:	ed0ff0ef          	jal	430 <set_displays>
     d64:	ff2418e3          	bne	s0,s2,d54 <__heap_size+0x554>
     d68:	06c12083          	lw	ra,108(sp)
     d6c:	06812403          	lw	s0,104(sp)
     d70:	06412483          	lw	s1,100(sp)
     d74:	06012903          	lw	s2,96(sp)
     d78:	05c12983          	lw	s3,92(sp)
     d7c:	05812a03          	lw	s4,88(sp)
     d80:	05412a83          	lw	s5,84(sp)
     d84:	05012b03          	lw	s6,80(sp)
     d88:	04c12b83          	lw	s7,76(sp)
     d8c:	04812c03          	lw	s8,72(sp)
     d90:	04412c83          	lw	s9,68(sp)
     d94:	04012d03          	lw	s10,64(sp)
     d98:	03c12d83          	lw	s11,60(sp)
     d9c:	07010113          	addi	sp,sp,112
     da0:	00008067          	ret
     da4:	410686b3          	sub	a3,a3,a6
     da8:	fff68693          	addi	a3,a3,-1
     dac:	00269613          	slli	a2,a3,0x2
     db0:	00d606b3          	add	a3,a2,a3
     db4:	00004637          	lui	a2,0x4
     db8:	43060613          	addi	a2,a2,1072 # 4430 <FONT_DATA>
     dbc:	00d606b3          	add	a3,a2,a3
     dc0:	0006c603          	lbu	a2,0(a3)
     dc4:	00167d93          	andi	s11,a2,1
     dc8:	000d8a63          	beqz	s11,ddc <__heap_size+0x5dc>
     dcc:	08009db7          	lui	s11,0x8009
     dd0:	980d8d93          	addi	s11,s11,-1664 # 8008980 <_stack_end+0x7f0442c>
     dd4:	01b78db3          	add	s11,a5,s11
     dd8:	00ed8023          	sb	a4,0(s11)
     ddc:	00267d93          	andi	s11,a2,2
     de0:	000d8a63          	beqz	s11,df4 <__heap_size+0x5f4>
     de4:	08009db7          	lui	s11,0x8009
     de8:	ac0d8d93          	addi	s11,s11,-1344 # 8008ac0 <_stack_end+0x7f0456c>
     dec:	01b78db3          	add	s11,a5,s11
     df0:	00ed8023          	sb	a4,0(s11)
     df4:	00467d93          	andi	s11,a2,4
     df8:	000d8a63          	beqz	s11,e0c <__heap_size+0x60c>
     dfc:	08009db7          	lui	s11,0x8009
     e00:	c00d8d93          	addi	s11,s11,-1024 # 8008c00 <_stack_end+0x7f046ac>
     e04:	01b78db3          	add	s11,a5,s11
     e08:	00ed8023          	sb	a4,0(s11)
     e0c:	00867d93          	andi	s11,a2,8
     e10:	000d8a63          	beqz	s11,e24 <__heap_size+0x624>
     e14:	08009db7          	lui	s11,0x8009
     e18:	d40d8d93          	addi	s11,s11,-704 # 8008d40 <_stack_end+0x7f047ec>
     e1c:	01b78db3          	add	s11,a5,s11
     e20:	00ed8023          	sb	a4,0(s11)
     e24:	01067d93          	andi	s11,a2,16
     e28:	000d8a63          	beqz	s11,e3c <__heap_size+0x63c>
     e2c:	08009db7          	lui	s11,0x8009
     e30:	e80d8d93          	addi	s11,s11,-384 # 8008e80 <_stack_end+0x7f0492c>
     e34:	01b78db3          	add	s11,a5,s11
     e38:	00ed8023          	sb	a4,0(s11)
     e3c:	02067d93          	andi	s11,a2,32
     e40:	000d8a63          	beqz	s11,e54 <__heap_size+0x654>
     e44:	08009db7          	lui	s11,0x8009
     e48:	fc0d8d93          	addi	s11,s11,-64 # 8008fc0 <_stack_end+0x7f04a6c>
     e4c:	01b78db3          	add	s11,a5,s11
     e50:	00ed8023          	sb	a4,0(s11)
     e54:	04067613          	andi	a2,a2,64
     e58:	00060a63          	beqz	a2,e6c <__heap_size+0x66c>
     e5c:	08009637          	lui	a2,0x8009
     e60:	10060613          	addi	a2,a2,256 # 8009100 <_stack_end+0x7f04bac>
     e64:	00c78633          	add	a2,a5,a2
     e68:	00e60023          	sb	a4,0(a2)
     e6c:	0016c603          	lbu	a2,1(a3)
     e70:	00167d93          	andi	s11,a2,1
     e74:	000d8a63          	beqz	s11,e88 <__heap_size+0x688>
     e78:	08009db7          	lui	s11,0x8009
     e7c:	981d8d93          	addi	s11,s11,-1663 # 8008981 <_stack_end+0x7f0442d>
     e80:	01b78db3          	add	s11,a5,s11
     e84:	00ed8023          	sb	a4,0(s11)
     e88:	00267d93          	andi	s11,a2,2
     e8c:	000d8a63          	beqz	s11,ea0 <__heap_size+0x6a0>
     e90:	08009db7          	lui	s11,0x8009
     e94:	ac1d8d93          	addi	s11,s11,-1343 # 8008ac1 <_stack_end+0x7f0456d>
     e98:	01b78db3          	add	s11,a5,s11
     e9c:	00ed8023          	sb	a4,0(s11)
     ea0:	00467d93          	andi	s11,a2,4
     ea4:	000d8a63          	beqz	s11,eb8 <__heap_size+0x6b8>
     ea8:	08009db7          	lui	s11,0x8009
     eac:	c01d8d93          	addi	s11,s11,-1023 # 8008c01 <_stack_end+0x7f046ad>
     eb0:	01b78db3          	add	s11,a5,s11
     eb4:	00ed8023          	sb	a4,0(s11)
     eb8:	00867d93          	andi	s11,a2,8
     ebc:	000d8a63          	beqz	s11,ed0 <__heap_size+0x6d0>
     ec0:	08009db7          	lui	s11,0x8009
     ec4:	d41d8d93          	addi	s11,s11,-703 # 8008d41 <_stack_end+0x7f047ed>
     ec8:	01b78db3          	add	s11,a5,s11
     ecc:	00ed8023          	sb	a4,0(s11)
     ed0:	01067d93          	andi	s11,a2,16
     ed4:	000d8a63          	beqz	s11,ee8 <__heap_size+0x6e8>
     ed8:	08009db7          	lui	s11,0x8009
     edc:	e81d8d93          	addi	s11,s11,-383 # 8008e81 <_stack_end+0x7f0492d>
     ee0:	01b78db3          	add	s11,a5,s11
     ee4:	00ed8023          	sb	a4,0(s11)
     ee8:	02067d93          	andi	s11,a2,32
     eec:	000d8a63          	beqz	s11,f00 <__heap_size+0x700>
     ef0:	08009db7          	lui	s11,0x8009
     ef4:	fc1d8d93          	addi	s11,s11,-63 # 8008fc1 <_stack_end+0x7f04a6d>
     ef8:	01b78db3          	add	s11,a5,s11
     efc:	00ed8023          	sb	a4,0(s11)
     f00:	04067613          	andi	a2,a2,64
     f04:	00060a63          	beqz	a2,f18 <__heap_size+0x718>
     f08:	08009637          	lui	a2,0x8009
     f0c:	10160613          	addi	a2,a2,257 # 8009101 <_stack_end+0x7f04bad>
     f10:	00c78633          	add	a2,a5,a2
     f14:	00e60023          	sb	a4,0(a2)
     f18:	0026c603          	lbu	a2,2(a3)
     f1c:	00167d93          	andi	s11,a2,1
     f20:	000d8a63          	beqz	s11,f34 <__heap_size+0x734>
     f24:	08009db7          	lui	s11,0x8009
     f28:	982d8d93          	addi	s11,s11,-1662 # 8008982 <_stack_end+0x7f0442e>
     f2c:	01b78db3          	add	s11,a5,s11
     f30:	00ed8023          	sb	a4,0(s11)
     f34:	00267d93          	andi	s11,a2,2
     f38:	000d8a63          	beqz	s11,f4c <__heap_size+0x74c>
     f3c:	08009db7          	lui	s11,0x8009
     f40:	ac2d8d93          	addi	s11,s11,-1342 # 8008ac2 <_stack_end+0x7f0456e>
     f44:	01b78db3          	add	s11,a5,s11
     f48:	00ed8023          	sb	a4,0(s11)
     f4c:	00467d93          	andi	s11,a2,4
     f50:	000d8863          	beqz	s11,f60 <__heap_size+0x760>
     f54:	00c12d83          	lw	s11,12(sp)
     f58:	01b78db3          	add	s11,a5,s11
     f5c:	00ed8023          	sb	a4,0(s11)
     f60:	00867d93          	andi	s11,a2,8
     f64:	000d8663          	beqz	s11,f70 <__heap_size+0x770>
     f68:	00678db3          	add	s11,a5,t1
     f6c:	00ed8023          	sb	a4,0(s11)
     f70:	01067d93          	andi	s11,a2,16
     f74:	000d8663          	beqz	s11,f80 <__heap_size+0x780>
     f78:	01c78db3          	add	s11,a5,t3
     f7c:	00ed8023          	sb	a4,0(s11)
     f80:	02067d93          	andi	s11,a2,32
     f84:	000d8663          	beqz	s11,f90 <__heap_size+0x790>
     f88:	01d78db3          	add	s11,a5,t4
     f8c:	00ed8023          	sb	a4,0(s11)
     f90:	04067613          	andi	a2,a2,64
     f94:	00060663          	beqz	a2,fa0 <__heap_size+0x7a0>
     f98:	01e78633          	add	a2,a5,t5
     f9c:	00e60023          	sb	a4,0(a2)
     fa0:	0036c603          	lbu	a2,3(a3)
     fa4:	00167d93          	andi	s11,a2,1
     fa8:	000d8663          	beqz	s11,fb4 <__heap_size+0x7b4>
     fac:	01f78db3          	add	s11,a5,t6
     fb0:	00ed8023          	sb	a4,0(s11)
     fb4:	00267d93          	andi	s11,a2,2
     fb8:	000d8663          	beqz	s11,fc4 <__heap_size+0x7c4>
     fbc:	00578db3          	add	s11,a5,t0
     fc0:	00ed8023          	sb	a4,0(s11)
     fc4:	00467d93          	andi	s11,a2,4
     fc8:	000d8663          	beqz	s11,fd4 <__heap_size+0x7d4>
     fcc:	00778db3          	add	s11,a5,t2
     fd0:	00ed8023          	sb	a4,0(s11)
     fd4:	00867d93          	andi	s11,a2,8
     fd8:	000d8663          	beqz	s11,fe4 <__heap_size+0x7e4>
     fdc:	00878db3          	add	s11,a5,s0
     fe0:	00ed8023          	sb	a4,0(s11)
     fe4:	01067d93          	andi	s11,a2,16
     fe8:	000d8663          	beqz	s11,ff4 <__heap_size+0x7f4>
     fec:	00978db3          	add	s11,a5,s1
     ff0:	00ed8023          	sb	a4,0(s11)
     ff4:	02067d93          	andi	s11,a2,32
     ff8:	000d8663          	beqz	s11,1004 <__heap_size+0x804>
     ffc:	01278db3          	add	s11,a5,s2
    1000:	00ed8023          	sb	a4,0(s11)
    1004:	04067613          	andi	a2,a2,64
    1008:	00060663          	beqz	a2,1014 <__heap_size+0x814>
    100c:	01378633          	add	a2,a5,s3
    1010:	00e60023          	sb	a4,0(a2)
    1014:	0046c683          	lbu	a3,4(a3)
    1018:	0016f613          	andi	a2,a3,1
    101c:	00060663          	beqz	a2,1028 <__heap_size+0x828>
    1020:	01478633          	add	a2,a5,s4
    1024:	00e60023          	sb	a4,0(a2)
    1028:	0026f613          	andi	a2,a3,2
    102c:	00060663          	beqz	a2,1038 <__heap_size+0x838>
    1030:	01578633          	add	a2,a5,s5
    1034:	00e60023          	sb	a4,0(a2)
    1038:	0046f613          	andi	a2,a3,4
    103c:	00060663          	beqz	a2,1048 <__heap_size+0x848>
    1040:	01678633          	add	a2,a5,s6
    1044:	00e60023          	sb	a4,0(a2)
    1048:	0086f613          	andi	a2,a3,8
    104c:	00060663          	beqz	a2,1058 <__heap_size+0x858>
    1050:	01778633          	add	a2,a5,s7
    1054:	00e60023          	sb	a4,0(a2)
    1058:	0106f613          	andi	a2,a3,16
    105c:	00060663          	beqz	a2,1068 <__heap_size+0x868>
    1060:	01878633          	add	a2,a5,s8
    1064:	00e60023          	sb	a4,0(a2)
    1068:	0206f613          	andi	a2,a3,32
    106c:	00060663          	beqz	a2,1078 <__heap_size+0x878>
    1070:	01978633          	add	a2,a5,s9
    1074:	00e60023          	sb	a4,0(a2)
    1078:	0406f693          	andi	a3,a3,64
    107c:	c20684e3          	beqz	a3,ca4 <__heap_size+0x4a4>
    1080:	01a786b3          	add	a3,a5,s10
    1084:	00e68023          	sb	a4,0(a3)
    1088:	00678793          	addi	a5,a5,6
    108c:	08e00693          	li	a3,142
    1090:	00188893          	addi	a7,a7,1
    1094:	0008cd83          	lbu	s11,0(a7)
    1098:	bed79ae3          	bne	a5,a3,c8c <__heap_size+0x48c>
    109c:	c1dff06f          	j	cb8 <__heap_size+0x4b8>
    10a0:	410787b3          	sub	a5,a5,a6
    10a4:	fff78793          	addi	a5,a5,-1
    10a8:	00279593          	slli	a1,a5,0x2
    10ac:	00f585b3          	add	a1,a1,a5
    10b0:	00ba05b3          	add	a1,s4,a1
    10b4:	ffb88713          	addi	a4,a7,-5
    10b8:	00e587b3          	add	a5,a1,a4
    10bc:	00f307b3          	add	a5,t1,a5
    10c0:	0007c783          	lbu	a5,0(a5)
    10c4:	0017fe93          	andi	t4,a5,1
    10c8:	0027fe13          	andi	t3,a5,2
    10cc:	060e8c63          	beqz	t4,1144 <__heap_size+0x944>
    10d0:	08e6c063          	blt	a3,a4,1150 <__heap_size+0x950>
    10d4:	01e70eb3          	add	t4,a4,t5
    10d8:	00ce8023          	sb	a2,0(t4)
    10dc:	000e0663          	beqz	t3,10e8 <__heap_size+0x8e8>
    10e0:	01f70e33          	add	t3,a4,t6
    10e4:	00ce0023          	sb	a2,0(t3)
    10e8:	0047fe13          	andi	t3,a5,4
    10ec:	0a0e1263          	bnez	t3,1190 <__heap_size+0x990>
    10f0:	0087fe13          	andi	t3,a5,8
    10f4:	0e0e1a63          	bnez	t3,11e8 <__heap_size+0x9e8>
    10f8:	0107fe13          	andi	t3,a5,16
    10fc:	0c0e1663          	bnez	t3,11c8 <__heap_size+0x9c8>
    1100:	0207fe13          	andi	t3,a5,32
    1104:	060e0863          	beqz	t3,1174 <__heap_size+0x974>
    1108:	00e6ce63          	blt	a3,a4,1124 <__heap_size+0x924>
    110c:	00970e33          	add	t3,a4,s1
    1110:	0407f793          	andi	a5,a5,64
    1114:	00ce0023          	sb	a2,0(t3)
    1118:	00078663          	beqz	a5,1124 <__heap_size+0x924>
    111c:	012707b3          	add	a5,a4,s2
    1120:	00c78023          	sb	a2,0(a5)
    1124:	00170713          	addi	a4,a4,1
    1128:	bee888e3          	beq	a7,a4,d18 <__heap_size+0x518>
    112c:	00e587b3          	add	a5,a1,a4
    1130:	00f307b3          	add	a5,t1,a5
    1134:	0007c783          	lbu	a5,0(a5)
    1138:	0017fe93          	andi	t4,a5,1
    113c:	0027fe13          	andi	t3,a5,2
    1140:	f80e98e3          	bnez	t4,10d0 <__heap_size+0x8d0>
    1144:	040e0063          	beqz	t3,1184 <__heap_size+0x984>
    1148:	f8e6dce3          	bge	a3,a4,10e0 <__heap_size+0x8e0>
    114c:	fd9ff06f          	j	1124 <__heap_size+0x924>
    1150:	fc0e1ae3          	bnez	t3,1124 <__heap_size+0x924>
    1154:	0047fe13          	andi	t3,a5,4
    1158:	fc0e16e3          	bnez	t3,1124 <__heap_size+0x924>
    115c:	0087fe13          	andi	t3,a5,8
    1160:	fc0e12e3          	bnez	t3,1124 <__heap_size+0x924>
    1164:	0107fe13          	andi	t3,a5,16
    1168:	fa0e1ee3          	bnez	t3,1124 <__heap_size+0x924>
    116c:	0207fe13          	andi	t3,a5,32
    1170:	fa0e1ae3          	bnez	t3,1124 <__heap_size+0x924>
    1174:	0407f793          	andi	a5,a5,64
    1178:	fa0786e3          	beqz	a5,1124 <__heap_size+0x924>
    117c:	fae6d0e3          	bge	a3,a4,111c <__heap_size+0x91c>
    1180:	fa5ff06f          	j	1124 <__heap_size+0x924>
    1184:	0047fe13          	andi	t3,a5,4
    1188:	040e0a63          	beqz	t3,11dc <__heap_size+0x9dc>
    118c:	f8e6cce3          	blt	a3,a4,1124 <__heap_size+0x924>
    1190:	00570e33          	add	t3,a4,t0
    1194:	00ce0023          	sb	a2,0(t3)
    1198:	0087fe13          	andi	t3,a5,8
    119c:	040e1663          	bnez	t3,11e8 <__heap_size+0x9e8>
    11a0:	0107fe13          	andi	t3,a5,16
    11a4:	020e1263          	bnez	t3,11c8 <__heap_size+0x9c8>
    11a8:	0207fe13          	andi	t3,a5,32
    11ac:	f60e10e3          	bnez	t3,110c <__heap_size+0x90c>
    11b0:	0407f793          	andi	a5,a5,64
    11b4:	f60794e3          	bnez	a5,111c <__heap_size+0x91c>
    11b8:	f6dff06f          	j	1124 <__heap_size+0x924>
    11bc:	0107fe13          	andi	t3,a5,16
    11c0:	f40e00e3          	beqz	t3,1100 <__heap_size+0x900>
    11c4:	f6e6c0e3          	blt	a3,a4,1124 <__heap_size+0x924>
    11c8:	00870e33          	add	t3,a4,s0
    11cc:	00ce0023          	sb	a2,0(t3)
    11d0:	0207fe13          	andi	t3,a5,32
    11d4:	f20e1ce3          	bnez	t3,110c <__heap_size+0x90c>
    11d8:	fd9ff06f          	j	11b0 <__heap_size+0x9b0>
    11dc:	0087fe13          	andi	t3,a5,8
    11e0:	fc0e0ee3          	beqz	t3,11bc <__heap_size+0x9bc>
    11e4:	f4e6c0e3          	blt	a3,a4,1124 <__heap_size+0x924>
    11e8:	00770e33          	add	t3,a4,t2
    11ec:	00ce0023          	sb	a2,0(t3)
    11f0:	0107fe13          	andi	t3,a5,16
    11f4:	fc0e1ae3          	bnez	t3,11c8 <__heap_size+0x9c8>
    11f8:	0207fe13          	andi	t3,a5,32
    11fc:	f00e18e3          	bnez	t3,110c <__heap_size+0x90c>
    1200:	f75ff06f          	j	1174 <__heap_size+0x974>
    1204:	02514683          	lbu	a3,37(sp)
    1208:	02414703          	lbu	a4,36(sp)
    120c:	00f10c23          	sb	a5,24(sp)
    1210:	00d10ca3          	sb	a3,25(sp)
    1214:	00e10d23          	sb	a4,26(sp)
    1218:	00300793          	li	a5,3
    121c:	ed0ff06f          	j	8ec <__heap_size+0xec>
    1220:	00c10c23          	sb	a2,24(sp)
    1224:	00100793          	li	a5,1
    1228:	ec4ff06f          	j	8ec <__heap_size+0xec>
    122c:	02414703          	lbu	a4,36(sp)
    1230:	00f10c23          	sb	a5,24(sp)
    1234:	00200793          	li	a5,2
    1238:	00e10ca3          	sb	a4,25(sp)
    123c:	eb0ff06f          	j	8ec <__heap_size+0xec>
    1240:	00400793          	li	a5,4
    1244:	ea8ff06f          	j	8ec <__heap_size+0xec>
    1248:	02614683          	lbu	a3,38(sp)
    124c:	00f10c23          	sb	a5,24(sp)
    1250:	02514703          	lbu	a4,37(sp)
    1254:	00400793          	li	a5,4
    1258:	00d10ca3          	sb	a3,25(sp)
    125c:	e04ff06f          	j	860 <__heap_size+0x60>
    1260:	00900793          	li	a5,9
    1264:	e88ff06f          	j	8ec <__heap_size+0xec>
    1268:	02714683          	lbu	a3,39(sp)
    126c:	00f10c23          	sb	a5,24(sp)
    1270:	02614703          	lbu	a4,38(sp)
    1274:	00500793          	li	a5,5
    1278:	00d10ca3          	sb	a3,25(sp)
    127c:	de4ff06f          	j	860 <__heap_size+0x60>
    1280:	02814683          	lbu	a3,40(sp)
    1284:	00f10c23          	sb	a5,24(sp)
    1288:	02714703          	lbu	a4,39(sp)
    128c:	00600793          	li	a5,6
    1290:	00d10ca3          	sb	a3,25(sp)
    1294:	dccff06f          	j	860 <__heap_size+0x60>
    1298:	02914683          	lbu	a3,41(sp)
    129c:	02814703          	lbu	a4,40(sp)
    12a0:	00b10c23          	sb	a1,24(sp)
    12a4:	00700793          	li	a5,7
    12a8:	00d10ca3          	sb	a3,25(sp)
    12ac:	db4ff06f          	j	860 <__heap_size+0x60>
    12b0:	02a14683          	lbu	a3,42(sp)
    12b4:	00e10c23          	sb	a4,24(sp)
    12b8:	00800793          	li	a5,8
    12bc:	02914703          	lbu	a4,41(sp)
    12c0:	00d10ca3          	sb	a3,25(sp)
    12c4:	d9cff06f          	j	860 <__heap_size+0x60>
    12c8:	02b14683          	lbu	a3,43(sp)
    12cc:	00f10c23          	sb	a5,24(sp)
    12d0:	02a14703          	lbu	a4,42(sp)
    12d4:	00900793          	li	a5,9
    12d8:	00d10ca3          	sb	a3,25(sp)
    12dc:	d84ff06f          	j	860 <__heap_size+0x60>
    12e0:	00500793          	li	a5,5
    12e4:	e08ff06f          	j	8ec <__heap_size+0xec>
    12e8:	00600793          	li	a5,6
    12ec:	e00ff06f          	j	8ec <__heap_size+0xec>
    12f0:	00700793          	li	a5,7
    12f4:	df8ff06f          	j	8ec <__heap_size+0xec>
    12f8:	00800793          	li	a5,8
    12fc:	df0ff06f          	j	8ec <__heap_size+0xec>

00001300 <initializeMap>:
    1300:	000028b7          	lui	a7,0x2
    1304:	22088893          	addi	a7,a7,544 # 2220 <map>
    1308:	00002eb7          	lui	t4,0x2
    130c:	00088693          	mv	a3,a7
    1310:	120e8e93          	addi	t4,t4,288 # 2120 <nextprime+0x30>
    1314:	00000613          	li	a2,0
    1318:	00000813          	li	a6,0
    131c:	06a00f93          	li	t6,106
    1320:	00100f13          	li	t5,1
    1324:	00200313          	li	t1,2
    1328:	40d007b3          	neg	a5,a3
    132c:	0037f593          	andi	a1,a5,3
    1330:	06058e63          	beqz	a1,13ac <initializeMap+0xac>
    1334:	00068023          	sb	zero,0(a3)
    1338:	0027f793          	andi	a5,a5,2
    133c:	06078263          	beqz	a5,13a0 <initializeMap+0xa0>
    1340:	000680a3          	sb	zero,1(a3)
    1344:	06800513          	li	a0,104
    1348:	00200e13          	li	t3,2
    134c:	00c587b3          	add	a5,a1,a2
    1350:	00f887b3          	add	a5,a7,a5
    1354:	06878713          	addi	a4,a5,104
    1358:	0007a023          	sw	zero,0(a5)
    135c:	00478793          	addi	a5,a5,4
    1360:	fee79ce3          	bne	a5,a4,1358 <initializeMap+0x58>
    1364:	02658463          	beq	a1,t1,138c <initializeMap+0x8c>
    1368:	03f807b3          	mul	a5,a6,t6
    136c:	f9850713          	addi	a4,a0,-104
    1370:	00f887b3          	add	a5,a7,a5
    1374:	01c787b3          	add	a5,a5,t3
    1378:	06078423          	sb	zero,104(a5)
    137c:	01e70863          	beq	a4,t5,138c <initializeMap+0x8c>
    1380:	060784a3          	sb	zero,105(a5)
    1384:	00670463          	beq	a4,t1,138c <initializeMap+0x8c>
    1388:	06078523          	sb	zero,106(a5)
    138c:	06a60613          	addi	a2,a2,106
    1390:	00180813          	addi	a6,a6,1
    1394:	06a68693          	addi	a3,a3,106
    1398:	f9d618e3          	bne	a2,t4,1328 <initializeMap+0x28>
    139c:	00008067          	ret
    13a0:	06900513          	li	a0,105
    13a4:	00100e13          	li	t3,1
    13a8:	fa5ff06f          	j	134c <initializeMap+0x4c>
    13ac:	06a00513          	li	a0,106
    13b0:	00000e13          	li	t3,0
    13b4:	f99ff06f          	j	134c <initializeMap+0x4c>

000013b8 <drawMap>:
    13b8:	00002537          	lui	a0,0x2
    13bc:	080005b7          	lui	a1,0x8000
    13c0:	08013837          	lui	a6,0x8013
    13c4:	22050513          	addi	a0,a0,544 # 2220 <map>
    13c8:	13e58593          	addi	a1,a1,318 # 800013e <_stack_end+0x7efbbea>
    13cc:	d3e80813          	addi	a6,a6,-706 # 8012d3e <_stack_end+0x7f0e7ea>
    13d0:	fff00693          	li	a3,-1
    13d4:	ec258793          	addi	a5,a1,-318
    13d8:	00050713          	mv	a4,a0
    13dc:	00c0006f          	j	13e8 <drawMap+0x30>
    13e0:	00378793          	addi	a5,a5,3
    13e4:	02f58e63          	beq	a1,a5,1420 <drawMap+0x68>
    13e8:	00074603          	lbu	a2,0(a4)
    13ec:	00170713          	addi	a4,a4,1
    13f0:	fe0608e3          	beqz	a2,13e0 <drawMap+0x28>
    13f4:	00d78023          	sb	a3,0(a5)
    13f8:	00d780a3          	sb	a3,1(a5)
    13fc:	00d78123          	sb	a3,2(a5)
    1400:	14d78023          	sb	a3,320(a5)
    1404:	14d780a3          	sb	a3,321(a5)
    1408:	14d78123          	sb	a3,322(a5)
    140c:	28d78023          	sb	a3,640(a5)
    1410:	28d780a3          	sb	a3,641(a5)
    1414:	28d78123          	sb	a3,642(a5)
    1418:	00378793          	addi	a5,a5,3
    141c:	fcf596e3          	bne	a1,a5,13e8 <drawMap+0x30>
    1420:	3c058593          	addi	a1,a1,960
    1424:	06a50513          	addi	a0,a0,106
    1428:	fb0596e3          	bne	a1,a6,13d4 <drawMap+0x1c>
    142c:	00008067          	ret

00001430 <moveSnake>:
    1430:	000027b7          	lui	a5,0x2
    1434:	20c7c603          	lbu	a2,524(a5) # 220c <direction>
    1438:	07200793          	li	a5,114
    143c:	0ef60e63          	beq	a2,a5,1538 <moveSnake+0x108>
    1440:	06c00793          	li	a5,108
    1444:	02f60063          	beq	a2,a5,1464 <moveSnake+0x34>
    1448:	07500793          	li	a5,117
    144c:	1ef60263          	beq	a2,a5,1630 <moveSnake+0x200>
    1450:	06400793          	li	a5,100
    1454:	14f60063          	beq	a2,a5,1594 <moveSnake+0x164>
    1458:	000027b7          	lui	a5,0x2
    145c:	22078793          	addi	a5,a5,544 # 2220 <map>
    1460:	0800006f          	j	14e0 <moveSnake+0xb0>
    1464:	000026b7          	lui	a3,0x2
    1468:	21c6a583          	lw	a1,540(a3) # 221c <xPos>
    146c:	00100513          	li	a0,1
    1470:	0cb05263          	blez	a1,1534 <moveSnake+0x104>
    1474:	000027b7          	lui	a5,0x2
    1478:	2187a703          	lw	a4,536(a5) # 2218 <yPos>
    147c:	06a00813          	li	a6,106
    1480:	000027b7          	lui	a5,0x2
    1484:	03070733          	mul	a4,a4,a6
    1488:	22078793          	addi	a5,a5,544 # 2220 <map>
    148c:	fff58813          	addi	a6,a1,-1
    1490:	06100313          	li	t1,97
    1494:	00e78733          	add	a4,a5,a4
    1498:	01070733          	add	a4,a4,a6
    149c:	00074883          	lbu	a7,0(a4)
    14a0:	0c689e63          	bne	a7,t1,157c <moveSnake+0x14c>
    14a4:	00002f37          	lui	t5,0x2
    14a8:	00004eb7          	lui	t4,0x4
    14ac:	00004e37          	lui	t3,0x4
    14b0:	208f2303          	lw	t1,520(t5) # 2208 <snakeLength>
    14b4:	344ea883          	lw	a7,836(t4) # 4344 <apples>
    14b8:	340e2503          	lw	a0,832(t3) # 4340 <applesEaten>
    14bc:	00130313          	addi	t1,t1,1
    14c0:	fff88893          	addi	a7,a7,-1
    14c4:	00150513          	addi	a0,a0,1
    14c8:	00c70023          	sb	a2,0(a4)
    14cc:	ffe58813          	addi	a6,a1,-2
    14d0:	206f2423          	sw	t1,520(t5)
    14d4:	351ea223          	sw	a7,836(t4)
    14d8:	34ae2023          	sw	a0,832(t3)
    14dc:	2106ae23          	sw	a6,540(a3)
    14e0:	00002537          	lui	a0,0x2
    14e4:	21052603          	lw	a2,528(a0) # 2210 <tailY>
    14e8:	06a00713          	li	a4,106
    14ec:	000025b7          	lui	a1,0x2
    14f0:	02e60733          	mul	a4,a2,a4
    14f4:	2145a683          	lw	a3,532(a1) # 2214 <tailX>
    14f8:	07200813          	li	a6,114
    14fc:	00e787b3          	add	a5,a5,a4
    1500:	00d787b3          	add	a5,a5,a3
    1504:	0007c703          	lbu	a4,0(a5)
    1508:	00078023          	sb	zero,0(a5)
    150c:	07070c63          	beq	a4,a6,1584 <moveSnake+0x154>
    1510:	06c00793          	li	a5,108
    1514:	18f70c63          	beq	a4,a5,16ac <moveSnake+0x27c>
    1518:	07500793          	li	a5,117
    151c:	0cf70463          	beq	a4,a5,15e4 <moveSnake+0x1b4>
    1520:	06400793          	li	a5,100
    1524:	00f71663          	bne	a4,a5,1530 <moveSnake+0x100>
    1528:	00160613          	addi	a2,a2,1
    152c:	20c52823          	sw	a2,528(a0)
    1530:	00000513          	li	a0,0
    1534:	00008067          	ret
    1538:	000026b7          	lui	a3,0x2
    153c:	21c6a583          	lw	a1,540(a3) # 221c <xPos>
    1540:	06800793          	li	a5,104
    1544:	00100513          	li	a0,1
    1548:	feb7c6e3          	blt	a5,a1,1534 <moveSnake+0x104>
    154c:	000027b7          	lui	a5,0x2
    1550:	2187a703          	lw	a4,536(a5) # 2218 <yPos>
    1554:	06a00813          	li	a6,106
    1558:	000027b7          	lui	a5,0x2
    155c:	03070733          	mul	a4,a4,a6
    1560:	22078793          	addi	a5,a5,544 # 2220 <map>
    1564:	00a58833          	add	a6,a1,a0
    1568:	06100313          	li	t1,97
    156c:	00e78733          	add	a4,a5,a4
    1570:	01070733          	add	a4,a4,a6
    1574:	00074883          	lbu	a7,0(a4)
    1578:	06688e63          	beq	a7,t1,15f4 <moveSnake+0x1c4>
    157c:	f60880e3          	beqz	a7,14dc <moveSnake+0xac>
    1580:	00008067          	ret
    1584:	00168693          	addi	a3,a3,1
    1588:	20d5aa23          	sw	a3,532(a1)
    158c:	00000513          	li	a0,0
    1590:	00008067          	ret
    1594:	000026b7          	lui	a3,0x2
    1598:	2186a583          	lw	a1,536(a3) # 2218 <yPos>
    159c:	04e00793          	li	a5,78
    15a0:	00100513          	li	a0,1
    15a4:	f8b7c8e3          	blt	a5,a1,1534 <moveSnake+0x104>
    15a8:	00a58833          	add	a6,a1,a0
    15ac:	06a00713          	li	a4,106
    15b0:	02e80733          	mul	a4,a6,a4
    15b4:	000028b7          	lui	a7,0x2
    15b8:	21c8a883          	lw	a7,540(a7) # 221c <xPos>
    15bc:	000027b7          	lui	a5,0x2
    15c0:	22078793          	addi	a5,a5,544 # 2220 <map>
    15c4:	06100313          	li	t1,97
    15c8:	00e78733          	add	a4,a5,a4
    15cc:	01170733          	add	a4,a4,a7
    15d0:	00074883          	lbu	a7,0(a4)
    15d4:	0e688463          	beq	a7,t1,16bc <moveSnake+0x28c>
    15d8:	f4089ee3          	bnez	a7,1534 <moveSnake+0x104>
    15dc:	2106ac23          	sw	a6,536(a3)
    15e0:	f01ff06f          	j	14e0 <moveSnake+0xb0>
    15e4:	fff60613          	addi	a2,a2,-1
    15e8:	20c52823          	sw	a2,528(a0)
    15ec:	00000513          	li	a0,0
    15f0:	00008067          	ret
    15f4:	00002f37          	lui	t5,0x2
    15f8:	00004eb7          	lui	t4,0x4
    15fc:	00004e37          	lui	t3,0x4
    1600:	208f2303          	lw	t1,520(t5) # 2208 <snakeLength>
    1604:	344ea883          	lw	a7,836(t4) # 4344 <apples>
    1608:	340e2503          	lw	a0,832(t3) # 4340 <applesEaten>
    160c:	00130313          	addi	t1,t1,1
    1610:	fff88893          	addi	a7,a7,-1
    1614:	00150513          	addi	a0,a0,1
    1618:	00c70023          	sb	a2,0(a4)
    161c:	00258813          	addi	a6,a1,2
    1620:	206f2423          	sw	t1,520(t5)
    1624:	351ea223          	sw	a7,836(t4)
    1628:	34ae2023          	sw	a0,832(t3)
    162c:	eb1ff06f          	j	14dc <moveSnake+0xac>
    1630:	000026b7          	lui	a3,0x2
    1634:	2186a583          	lw	a1,536(a3) # 2218 <yPos>
    1638:	00100513          	li	a0,1
    163c:	eeb05ce3          	blez	a1,1534 <moveSnake+0x104>
    1640:	fff58813          	addi	a6,a1,-1
    1644:	06a00713          	li	a4,106
    1648:	02e80733          	mul	a4,a6,a4
    164c:	000028b7          	lui	a7,0x2
    1650:	21c8a883          	lw	a7,540(a7) # 221c <xPos>
    1654:	000027b7          	lui	a5,0x2
    1658:	22078793          	addi	a5,a5,544 # 2220 <map>
    165c:	06100313          	li	t1,97
    1660:	00e78733          	add	a4,a5,a4
    1664:	01170733          	add	a4,a4,a7
    1668:	00074883          	lbu	a7,0(a4)
    166c:	f66896e3          	bne	a7,t1,15d8 <moveSnake+0x1a8>
    1670:	00002f37          	lui	t5,0x2
    1674:	00004eb7          	lui	t4,0x4
    1678:	00004e37          	lui	t3,0x4
    167c:	208f2303          	lw	t1,520(t5) # 2208 <snakeLength>
    1680:	344ea883          	lw	a7,836(t4) # 4344 <apples>
    1684:	340e2503          	lw	a0,832(t3) # 4340 <applesEaten>
    1688:	00130313          	addi	t1,t1,1
    168c:	fff88893          	addi	a7,a7,-1
    1690:	00150513          	addi	a0,a0,1
    1694:	00c70023          	sb	a2,0(a4)
    1698:	ffe58813          	addi	a6,a1,-2
    169c:	206f2423          	sw	t1,520(t5)
    16a0:	351ea223          	sw	a7,836(t4)
    16a4:	34ae2023          	sw	a0,832(t3)
    16a8:	f35ff06f          	j	15dc <moveSnake+0x1ac>
    16ac:	fff68693          	addi	a3,a3,-1
    16b0:	20d5aa23          	sw	a3,532(a1)
    16b4:	00000513          	li	a0,0
    16b8:	00008067          	ret
    16bc:	00002f37          	lui	t5,0x2
    16c0:	00004eb7          	lui	t4,0x4
    16c4:	00004e37          	lui	t3,0x4
    16c8:	208f2303          	lw	t1,520(t5) # 2208 <snakeLength>
    16cc:	344ea883          	lw	a7,836(t4) # 4344 <apples>
    16d0:	340e2503          	lw	a0,832(t3) # 4340 <applesEaten>
    16d4:	00130313          	addi	t1,t1,1
    16d8:	fff88893          	addi	a7,a7,-1
    16dc:	00150513          	addi	a0,a0,1
    16e0:	00c70023          	sb	a2,0(a4)
    16e4:	00258813          	addi	a6,a1,2
    16e8:	206f2423          	sw	t1,520(t5)
    16ec:	351ea223          	sw	a7,836(t4)
    16f0:	34ae2023          	sw	a0,832(t3)
    16f4:	ee9ff06f          	j	15dc <moveSnake+0x1ac>

000016f8 <rotateSnake>:
    16f8:	00002737          	lui	a4,0x2
    16fc:	20c74783          	lbu	a5,524(a4) # 220c <direction>
    1700:	07200693          	li	a3,114
    1704:	02d78a63          	beq	a5,a3,1738 <rotateSnake+0x40>
    1708:	06c00613          	li	a2,108
    170c:	00c78c63          	beq	a5,a2,1724 <rotateSnake+0x2c>
    1710:	07500593          	li	a1,117
    1714:	04b78863          	beq	a5,a1,1764 <rotateSnake+0x6c>
    1718:	06400593          	li	a1,100
    171c:	02b78a63          	beq	a5,a1,1750 <rotateSnake+0x58>
    1720:	00008067          	ret
    1724:	02f50063          	beq	a0,a5,1744 <rotateSnake+0x4c>
    1728:	fed51ce3          	bne	a0,a3,1720 <rotateSnake+0x28>
    172c:	07500793          	li	a5,117
    1730:	20f70623          	sb	a5,524(a4)
    1734:	00008067          	ret
    1738:	06c00693          	li	a3,108
    173c:	fed508e3          	beq	a0,a3,172c <rotateSnake+0x34>
    1740:	fef510e3          	bne	a0,a5,1720 <rotateSnake+0x28>
    1744:	06400793          	li	a5,100
    1748:	20f70623          	sb	a5,524(a4)
    174c:	00008067          	ret
    1750:	00c50e63          	beq	a0,a2,176c <rotateSnake+0x74>
    1754:	fcd516e3          	bne	a0,a3,1720 <rotateSnake+0x28>
    1758:	06c00793          	li	a5,108
    175c:	20f70623          	sb	a5,524(a4)
    1760:	00008067          	ret
    1764:	fec50ae3          	beq	a0,a2,1758 <rotateSnake+0x60>
    1768:	fad51ce3          	bne	a0,a3,1720 <rotateSnake+0x28>
    176c:	07200793          	li	a5,114
    1770:	20f70623          	sb	a5,524(a4)
    1774:	00008067          	ret

00001778 <rand>:
    1778:	00002737          	lui	a4,0x2
    177c:	20472503          	lw	a0,516(a4) # 2204 <seed>
    1780:	41c657b7          	lui	a5,0x41c65
    1784:	e6d78793          	addi	a5,a5,-403 # 41c64e6d <_stack_end+0x41b60919>
    1788:	02f50533          	mul	a0,a0,a5
    178c:	000037b7          	lui	a5,0x3
    1790:	03978793          	addi	a5,a5,57 # 3039 <__global_pointer+0x638>
    1794:	00f50533          	add	a0,a0,a5
    1798:	00151793          	slli	a5,a0,0x1
    179c:	20a72223          	sw	a0,516(a4)
    17a0:	0117d513          	srli	a0,a5,0x11
    17a4:	00008067          	ret

000017a8 <spawnApple>:
    17a8:	000042b7          	lui	t0,0x4
    17ac:	3442af83          	lw	t6,836(t0) # 4344 <apples>
    17b0:	000027b7          	lui	a5,0x2
    17b4:	2087a783          	lw	a5,520(a5) # 2208 <snakeLength>
    17b8:	009f8713          	addi	a4,t6,9
    17bc:	0cf75463          	bge	a4,a5,1884 <spawnApple+0xdc>
    17c0:	000023b7          	lui	t2,0x2
    17c4:	2043a583          	lw	a1,516(t2) # 2204 <seed>
    17c8:	ff010113          	addi	sp,sp,-16
    17cc:	00002f37          	lui	t5,0x2
    17d0:	00008537          	lui	a0,0x8
    17d4:	41c658b7          	lui	a7,0x41c65
    17d8:	00003837          	lui	a6,0x3
    17dc:	4d487eb7          	lui	t4,0x4d487
    17e0:	ccccde37          	lui	t3,0xccccd
    17e4:	00812623          	sw	s0,12(sp)
    17e8:	220f0f13          	addi	t5,t5,544 # 2220 <map>
    17ec:	e6d88893          	addi	a7,a7,-403 # 41c64e6d <_stack_end+0x41b60919>
    17f0:	03980813          	addi	a6,a6,57 # 3039 <__global_pointer+0x638>
    17f4:	fff50513          	addi	a0,a0,-1 # 7fff <vga_base+0x3aaf>
    17f8:	3ede8e93          	addi	t4,t4,1005 # 4d4873ed <_stack_end+0x4d382e99>
    17fc:	ccde0e13          	addi	t3,t3,-819 # cccccccd <_stack_end+0xccbc8779>
    1800:	06a00313          	li	t1,106
    1804:	031586b3          	mul	a3,a1,a7
    1808:	010686b3          	add	a3,a3,a6
    180c:	031685b3          	mul	a1,a3,a7
    1810:	0106d693          	srli	a3,a3,0x10
    1814:	00a6f6b3          	and	a3,a3,a0
    1818:	0016d713          	srli	a4,a3,0x1
    181c:	010585b3          	add	a1,a1,a6
    1820:	0105d413          	srli	s0,a1,0x10
    1824:	00a47433          	and	s0,s0,a0
    1828:	03c437b3          	mulhu	a5,s0,t3
    182c:	03d73733          	mulhu	a4,a4,t4
    1830:	0067d793          	srli	a5,a5,0x6
    1834:	00279613          	slli	a2,a5,0x2
    1838:	00f607b3          	add	a5,a2,a5
    183c:	00479793          	slli	a5,a5,0x4
    1840:	40f407b3          	sub	a5,s0,a5
    1844:	00475713          	srli	a4,a4,0x4
    1848:	026787b3          	mul	a5,a5,t1
    184c:	02670733          	mul	a4,a4,t1
    1850:	00ff07b3          	add	a5,t5,a5
    1854:	40e68733          	sub	a4,a3,a4
    1858:	00e787b3          	add	a5,a5,a4
    185c:	0007c703          	lbu	a4,0(a5)
    1860:	fa0712e3          	bnez	a4,1804 <spawnApple+0x5c>
    1864:	06100713          	li	a4,97
    1868:	00e78023          	sb	a4,0(a5)
    186c:	00c12403          	lw	s0,12(sp)
    1870:	001f8f93          	addi	t6,t6,1
    1874:	35f2a223          	sw	t6,836(t0)
    1878:	20b3a223          	sw	a1,516(t2)
    187c:	01010113          	addi	sp,sp,16
    1880:	00008067          	ret
    1884:	00008067          	ret

00001888 <playGame>:
    1888:	fb010113          	addi	sp,sp,-80
    188c:	00a00793          	li	a5,10
    1890:	00002737          	lui	a4,0x2
    1894:	03812423          	sw	s8,40(sp)
    1898:	20f72823          	sw	a5,528(a4) # 2210 <tailY>
    189c:	00002c37          	lui	s8,0x2
    18a0:	00002737          	lui	a4,0x2
    18a4:	00100e93          	li	t4,1
    18a8:	04912223          	sw	s1,68(sp)
    18ac:	03312e23          	sw	s3,60(sp)
    18b0:	03412c23          	sw	s4,56(sp)
    18b4:	03512a23          	sw	s5,52(sp)
    18b8:	03612823          	sw	s6,48(sp)
    18bc:	03912223          	sw	s9,36(sp)
    18c0:	220c0c13          	addi	s8,s8,544 # 2220 <map>
    18c4:	000044b7          	lui	s1,0x4
    18c8:	000049b7          	lui	s3,0x4
    18cc:	00002b37          	lui	s6,0x2
    18d0:	00002ab7          	lui	s5,0x2
    18d4:	00002a37          	lui	s4,0x2
    18d8:	21d72a23          	sw	t4,532(a4) # 2214 <tailX>
    18dc:	00002cb7          	lui	s9,0x2
    18e0:	07200713          	li	a4,114
    18e4:	00002537          	lui	a0,0x2
    18e8:	04112623          	sw	ra,76(sp)
    18ec:	04812423          	sw	s0,72(sp)
    18f0:	05212023          	sw	s2,64(sp)
    18f4:	03712623          	sw	s7,44(sp)
    18f8:	03a12023          	sw	s10,32(sp)
    18fc:	01b12e23          	sw	s11,28(sp)
    1900:	20ec8623          	sb	a4,524(s9) # 220c <direction>
    1904:	000c0e13          	mv	t3,s8
    1908:	3404a223          	sw	zero,836(s1) # 4344 <apples>
    190c:	3409a023          	sw	zero,832(s3) # 4340 <applesEaten>
    1910:	20fb2e23          	sw	a5,540(s6) # 221c <xPos>
    1914:	20faac23          	sw	a5,536(s5) # 2218 <yPos>
    1918:	20fa2423          	sw	a5,520(s4) # 2208 <snakeLength>
    191c:	12050513          	addi	a0,a0,288 # 2120 <nextprime+0x30>
    1920:	00000613          	li	a2,0
    1924:	00000593          	li	a1,0
    1928:	06a00f13          	li	t5,106
    192c:	00200313          	li	t1,2
    1930:	41c007b3          	neg	a5,t3
    1934:	0037f813          	andi	a6,a5,3
    1938:	2e080063          	beqz	a6,1c18 <playGame+0x390>
    193c:	000e0023          	sb	zero,0(t3)
    1940:	0027f793          	andi	a5,a5,2
    1944:	2c078463          	beqz	a5,1c0c <playGame+0x384>
    1948:	000e00a3          	sb	zero,1(t3)
    194c:	00200893          	li	a7,2
    1950:	06800693          	li	a3,104
    1954:	010607b3          	add	a5,a2,a6
    1958:	00fc07b3          	add	a5,s8,a5
    195c:	06878713          	addi	a4,a5,104
    1960:	0007a023          	sw	zero,0(a5)
    1964:	00478793          	addi	a5,a5,4
    1968:	fee79ce3          	bne	a5,a4,1960 <playGame+0xd8>
    196c:	02680463          	beq	a6,t1,1994 <playGame+0x10c>
    1970:	03e587b3          	mul	a5,a1,t5
    1974:	f9868693          	addi	a3,a3,-104
    1978:	00fc07b3          	add	a5,s8,a5
    197c:	011787b3          	add	a5,a5,a7
    1980:	06078423          	sb	zero,104(a5)
    1984:	01d68863          	beq	a3,t4,1994 <playGame+0x10c>
    1988:	060784a3          	sb	zero,105(a5)
    198c:	00668463          	beq	a3,t1,1994 <playGame+0x10c>
    1990:	06078523          	sb	zero,106(a5)
    1994:	06a60613          	addi	a2,a2,106
    1998:	00158593          	addi	a1,a1,1
    199c:	06ae0e13          	addi	t3,t3,106
    19a0:	f8a618e3          	bne	a2,a0,1930 <playGame+0xa8>
    19a4:	72727737          	lui	a4,0x72727
    19a8:	27270713          	addi	a4,a4,626 # 72727272 <_stack_end+0x72622d1e>
    19ac:	000077b7          	lui	a5,0x7
    19b0:	27278793          	addi	a5,a5,626 # 7272 <vga_base+0x2d22>
    19b4:	42ec2423          	sw	a4,1064(s8)
    19b8:	07200713          	li	a4,114
    19bc:	42fc1323          	sh	a5,1062(s8)
    19c0:	42fc1623          	sh	a5,1068(s8)
    19c4:	42ec02a3          	sb	a4,1061(s8)
    19c8:	42ec0723          	sb	a4,1070(s8)
    19cc:	fff00413          	li	s0,-1
    19d0:	07500913          	li	s2,117
    19d4:	06400b93          	li	s7,100
    19d8:	08000737          	lui	a4,0x8000
    19dc:	080136b7          	lui	a3,0x8013
    19e0:	14070713          	addi	a4,a4,320 # 8000140 <_stack_end+0x7efbbec>
    19e4:	d4068693          	addi	a3,a3,-704 # 8012d40 <_stack_end+0x7f0e7ec>
    19e8:	ec070793          	addi	a5,a4,-320
    19ec:	00078023          	sb	zero,0(a5)
    19f0:	00178793          	addi	a5,a5,1
    19f4:	fef71ce3          	bne	a4,a5,19ec <playGame+0x164>
    19f8:	14070713          	addi	a4,a4,320
    19fc:	fed716e3          	bne	a4,a3,19e8 <playGame+0x160>
    1a00:	08000637          	lui	a2,0x8000
    1a04:	08013537          	lui	a0,0x8013
    1a08:	13e60613          	addi	a2,a2,318 # 800013e <_stack_end+0x7efbbea>
    1a0c:	d3e50513          	addi	a0,a0,-706 # 8012d3e <_stack_end+0x7f0e7ea>
    1a10:	000c0593          	mv	a1,s8
    1a14:	ec260793          	addi	a5,a2,-318
    1a18:	00058713          	mv	a4,a1
    1a1c:	00c0006f          	j	1a28 <playGame+0x1a0>
    1a20:	00378793          	addi	a5,a5,3
    1a24:	02c78e63          	beq	a5,a2,1a60 <playGame+0x1d8>
    1a28:	00074683          	lbu	a3,0(a4)
    1a2c:	00170713          	addi	a4,a4,1
    1a30:	fe0688e3          	beqz	a3,1a20 <playGame+0x198>
    1a34:	00878023          	sb	s0,0(a5)
    1a38:	008780a3          	sb	s0,1(a5)
    1a3c:	00878123          	sb	s0,2(a5)
    1a40:	14878023          	sb	s0,320(a5)
    1a44:	148780a3          	sb	s0,321(a5)
    1a48:	14878123          	sb	s0,322(a5)
    1a4c:	28878023          	sb	s0,640(a5)
    1a50:	288780a3          	sb	s0,641(a5)
    1a54:	28878123          	sb	s0,642(a5)
    1a58:	00378793          	addi	a5,a5,3
    1a5c:	fcc796e3          	bne	a5,a2,1a28 <playGame+0x1a0>
    1a60:	3c078613          	addi	a2,a5,960
    1a64:	06a58593          	addi	a1,a1,106
    1a68:	faa616e3          	bne	a2,a0,1a14 <playGame+0x18c>
    1a6c:	04000737          	lui	a4,0x4000
    1a70:	01072683          	lw	a3,16(a4) # 4000010 <_stack_end+0x3efbabc>
    1a74:	01070713          	addi	a4,a4,16
    1a78:	20ccc783          	lbu	a5,524(s9)
    1a7c:	0016f613          	andi	a2,a3,1
    1a80:	1a061263          	bnez	a2,1c24 <playGame+0x39c>
    1a84:	0026f693          	andi	a3,a3,2
    1a88:	1c069863          	bnez	a3,1c58 <playGame+0x3d0>
    1a8c:	218aa703          	lw	a4,536(s5)
    1a90:	06a00d13          	li	s10,106
    1a94:	21cb2683          	lw	a3,540(s6)
    1a98:	03a70733          	mul	a4,a4,s10
    1a9c:	00ec0733          	add	a4,s8,a4
    1aa0:	00d70733          	add	a4,a4,a3
    1aa4:	00f70023          	sb	a5,0(a4)
    1aa8:	989ff0ef          	jal	1430 <moveSnake>
    1aac:	3444a603          	lw	a2,836(s1)
    1ab0:	208a2783          	lw	a5,520(s4)
    1ab4:	00a12423          	sw	a0,8(sp)
    1ab8:	00960713          	addi	a4,a2,9
    1abc:	0af75463          	bge	a4,a5,1b64 <playGame+0x2dc>
    1ac0:	00002e37          	lui	t3,0x2
    1ac4:	204e2683          	lw	a3,516(t3) # 2204 <seed>
    1ac8:	000085b7          	lui	a1,0x8
    1acc:	41c65837          	lui	a6,0x41c65
    1ad0:	00003537          	lui	a0,0x3
    1ad4:	4d487337          	lui	t1,0x4d487
    1ad8:	ccccd8b7          	lui	a7,0xccccd
    1adc:	e6d80813          	addi	a6,a6,-403 # 41c64e6d <_stack_end+0x41b60919>
    1ae0:	03950513          	addi	a0,a0,57 # 3039 <__global_pointer+0x638>
    1ae4:	fff58593          	addi	a1,a1,-1 # 7fff <vga_base+0x3aaf>
    1ae8:	3ed30313          	addi	t1,t1,1005 # 4d4873ed <_stack_end+0x4d382e99>
    1aec:	ccd88893          	addi	a7,a7,-819 # cccccccd <_stack_end+0xccbc8779>
    1af0:	030687b3          	mul	a5,a3,a6
    1af4:	00a787b3          	add	a5,a5,a0
    1af8:	030786b3          	mul	a3,a5,a6
    1afc:	0107d793          	srli	a5,a5,0x10
    1b00:	00b7feb3          	and	t4,a5,a1
    1b04:	001ed713          	srli	a4,t4,0x1
    1b08:	00a686b3          	add	a3,a3,a0
    1b0c:	0106df13          	srli	t5,a3,0x10
    1b10:	00bf7f33          	and	t5,t5,a1
    1b14:	031f37b3          	mulhu	a5,t5,a7
    1b18:	02673733          	mulhu	a4,a4,t1
    1b1c:	0067d793          	srli	a5,a5,0x6
    1b20:	00279f93          	slli	t6,a5,0x2
    1b24:	00ff87b3          	add	a5,t6,a5
    1b28:	00479793          	slli	a5,a5,0x4
    1b2c:	40ff07b3          	sub	a5,t5,a5
    1b30:	00475713          	srli	a4,a4,0x4
    1b34:	03a787b3          	mul	a5,a5,s10
    1b38:	03a70733          	mul	a4,a4,s10
    1b3c:	00fc07b3          	add	a5,s8,a5
    1b40:	40ee8733          	sub	a4,t4,a4
    1b44:	00e787b3          	add	a5,a5,a4
    1b48:	0007c703          	lbu	a4,0(a5)
    1b4c:	fa0712e3          	bnez	a4,1af0 <playGame+0x268>
    1b50:	00160613          	addi	a2,a2,1
    1b54:	06100713          	li	a4,97
    1b58:	34c4a223          	sw	a2,836(s1)
    1b5c:	20de2223          	sw	a3,516(t3)
    1b60:	00e78023          	sb	a4,0(a5)
    1b64:	00f00513          	li	a0,15
    1b68:	fb0fe0ef          	jal	318 <delay>
    1b6c:	3409a783          	lw	a5,832(s3)
    1b70:	66666db7          	lui	s11,0x66666
    1b74:	667d8d93          	addi	s11,s11,1639 # 66666667 <_stack_end+0x66562113>
    1b78:	00000513          	li	a0,0
    1b7c:	03b79d33          	mulh	s10,a5,s11
    1b80:	41f7d713          	srai	a4,a5,0x1f
    1b84:	00a12623          	sw	a0,12(sp)
    1b88:	402d5d13          	srai	s10,s10,0x2
    1b8c:	40ed0d33          	sub	s10,s10,a4
    1b90:	002d1713          	slli	a4,s10,0x2
    1b94:	01a70733          	add	a4,a4,s10
    1b98:	00171713          	slli	a4,a4,0x1
    1b9c:	40e787b3          	sub	a5,a5,a4
    1ba0:	03078593          	addi	a1,a5,48
    1ba4:	0ff5f593          	zext.b	a1,a1
    1ba8:	889fe0ef          	jal	430 <set_displays>
    1bac:	00c12503          	lw	a0,12(sp)
    1bb0:	00600693          	li	a3,6
    1bb4:	000d0793          	mv	a5,s10
    1bb8:	00150513          	addi	a0,a0,1
    1bbc:	fcd510e3          	bne	a0,a3,1b7c <playGame+0x2f4>
    1bc0:	00812783          	lw	a5,8(sp)
    1bc4:	e0078ae3          	beqz	a5,19d8 <playGame+0x150>
    1bc8:	06400513          	li	a0,100
    1bcc:	f4cfe0ef          	jal	318 <delay>
    1bd0:	04812403          	lw	s0,72(sp)
    1bd4:	04c12083          	lw	ra,76(sp)
    1bd8:	04412483          	lw	s1,68(sp)
    1bdc:	04012903          	lw	s2,64(sp)
    1be0:	03c12983          	lw	s3,60(sp)
    1be4:	03812a03          	lw	s4,56(sp)
    1be8:	03412a83          	lw	s5,52(sp)
    1bec:	03012b03          	lw	s6,48(sp)
    1bf0:	02c12b83          	lw	s7,44(sp)
    1bf4:	02812c03          	lw	s8,40(sp)
    1bf8:	02412c83          	lw	s9,36(sp)
    1bfc:	02012d03          	lw	s10,32(sp)
    1c00:	01c12d83          	lw	s11,28(sp)
    1c04:	05010113          	addi	sp,sp,80
    1c08:	97dfe06f          	j	584 <gameOver>
    1c0c:	00100893          	li	a7,1
    1c10:	06900693          	li	a3,105
    1c14:	d41ff06f          	j	1954 <playGame+0xcc>
    1c18:	06a00693          	li	a3,106
    1c1c:	00000893          	li	a7,0
    1c20:	d35ff06f          	j	1954 <playGame+0xcc>
    1c24:	00072683          	lw	a3,0(a4)
    1c28:	0016f693          	andi	a3,a3,1
    1c2c:	fe069ce3          	bnez	a3,1c24 <playGame+0x39c>
    1c30:	07200713          	li	a4,114
    1c34:	04e78e63          	beq	a5,a4,1c90 <playGame+0x408>
    1c38:	06c00713          	li	a4,108
    1c3c:	06e78063          	beq	a5,a4,1c9c <playGame+0x414>
    1c40:	05278263          	beq	a5,s2,1c84 <playGame+0x3fc>
    1c44:	06400713          	li	a4,100
    1c48:	e4e792e3          	bne	a5,a4,1a8c <playGame+0x204>
    1c4c:	06c00793          	li	a5,108
    1c50:	20fc8623          	sb	a5,524(s9)
    1c54:	e39ff06f          	j	1a8c <playGame+0x204>
    1c58:	00072683          	lw	a3,0(a4)
    1c5c:	0026f693          	andi	a3,a3,2
    1c60:	fe069ce3          	bnez	a3,1c58 <playGame+0x3d0>
    1c64:	07200713          	li	a4,114
    1c68:	02e78a63          	beq	a5,a4,1c9c <playGame+0x414>
    1c6c:	06c00713          	li	a4,108
    1c70:	02e78063          	beq	a5,a4,1c90 <playGame+0x408>
    1c74:	07500713          	li	a4,117
    1c78:	fce78ae3          	beq	a5,a4,1c4c <playGame+0x3c4>
    1c7c:	06400713          	li	a4,100
    1c80:	e0e796e3          	bne	a5,a4,1a8c <playGame+0x204>
    1c84:	07200793          	li	a5,114
    1c88:	20fc8623          	sb	a5,524(s9)
    1c8c:	e01ff06f          	j	1a8c <playGame+0x204>
    1c90:	217c8623          	sb	s7,524(s9)
    1c94:	06400793          	li	a5,100
    1c98:	df5ff06f          	j	1a8c <playGame+0x204>
    1c9c:	212c8623          	sb	s2,524(s9)
    1ca0:	07500793          	li	a5,117
    1ca4:	de9ff06f          	j	1a8c <playGame+0x204>

00001ca8 <handle_interrupt>:
    1ca8:	00008067          	ret

00001cac <main>:
    1cac:	ff010113          	addi	sp,sp,-16
    1cb0:	00812423          	sw	s0,8(sp)
    1cb4:	04000437          	lui	s0,0x4000
    1cb8:	00112623          	sw	ra,12(sp)
    1cbc:	0d040413          	addi	s0,s0,208 # 40000d0 <_stack_end+0x3efbb7c>
    1cc0:	bc9ff0ef          	jal	1888 <playGame>
    1cc4:	00042783          	lw	a5,0(s0)
    1cc8:	0017f793          	andi	a5,a5,1
    1ccc:	fe078ce3          	beqz	a5,1cc4 <main+0x18>
    1cd0:	00042783          	lw	a5,0(s0)
    1cd4:	0017f793          	andi	a5,a5,1
    1cd8:	fe0784e3          	beqz	a5,1cc0 <main+0x14>
    1cdc:	00042783          	lw	a5,0(s0)
    1ce0:	0017f793          	andi	a5,a5,1
    1ce4:	fe0796e3          	bnez	a5,1cd0 <main+0x24>
    1ce8:	fd9ff06f          	j	1cc0 <main+0x14>

00001cec <analyze>:
    1cec:	03000413          	li	s0,48

00001cf0 <loop>:
    1cf0:	00040513          	mv	a0,s0
    1cf4:	00b00893          	li	a7,11
    1cf8:	00000073          	ecall
    1cfc:	00340413          	addi	s0,s0,3
    1d00:	05a00293          	li	t0,90
    1d04:	fe82d6e3          	bge	t0,s0,1cf0 <loop>
    1d08:	00008067          	ret

00001d0c <hex2asc>:
    1d0c:	01100513          	li	a0,17
    1d10:	ffc10113          	addi	sp,sp,-4
    1d14:	00112023          	sw	ra,0(sp)
    1d18:	018000ef          	jal	1d30 <hexasc>
    1d1c:	00b00893          	li	a7,11
    1d20:	00000073          	ecall
    1d24:	00012083          	lw	ra,0(sp)
    1d28:	00410113          	addi	sp,sp,4
    1d2c:	00008067          	ret

00001d30 <hexasc>:
    1d30:	00900293          	li	t0,9
    1d34:	00f57513          	andi	a0,a0,15
    1d38:	ff650513          	addi	a0,a0,-10
    1d3c:	00054663          	bltz	a0,1d48 <digit>
    1d40:	04150513          	addi	a0,a0,65
    1d44:	00008067          	ret

00001d48 <digit>:
    1d48:	03a50513          	addi	a0,a0,58
    1d4c:	00008067          	ret

00001d50 <printc>:
    1d50:	04000737          	lui	a4,0x4000
    1d54:	04470713          	addi	a4,a4,68 # 4000044 <_stack_end+0x3efbaf0>
    1d58:	000106b7          	lui	a3,0x10
    1d5c:	00072783          	lw	a5,0(a4)
    1d60:	fed7eee3          	bltu	a5,a3,1d5c <printc+0xc>
    1d64:	040007b7          	lui	a5,0x4000
    1d68:	04a7a023          	sw	a0,64(a5) # 4000040 <_stack_end+0x3efbaec>
    1d6c:	00008067          	ret

00001d70 <print>:
    1d70:	00054603          	lbu	a2,0(a0)
    1d74:	02060863          	beqz	a2,1da4 <print+0x34>
    1d78:	04000737          	lui	a4,0x4000
    1d7c:	040005b7          	lui	a1,0x4000
    1d80:	04470713          	addi	a4,a4,68 # 4000044 <_stack_end+0x3efbaf0>
    1d84:	04058593          	addi	a1,a1,64 # 4000040 <_stack_end+0x3efbaec>
    1d88:	000106b7          	lui	a3,0x10
    1d8c:	00072783          	lw	a5,0(a4)
    1d90:	fed7eee3          	bltu	a5,a3,1d8c <print+0x1c>
    1d94:	00c5a023          	sw	a2,0(a1)
    1d98:	00154603          	lbu	a2,1(a0)
    1d9c:	00150513          	addi	a0,a0,1
    1da0:	fe0616e3          	bnez	a2,1d8c <print+0x1c>
    1da4:	00008067          	ret

00001da8 <print_dec>:
    1da8:	3b9ad737          	lui	a4,0x3b9ad
    1dac:	040006b7          	lui	a3,0x4000
    1db0:	04000337          	lui	t1,0x4000
    1db4:	ccccd8b7          	lui	a7,0xccccd
    1db8:	a0070713          	addi	a4,a4,-1536 # 3b9aca00 <_stack_end+0x3b8a84ac>
    1dbc:	04468693          	addi	a3,a3,68 # 4000044 <_stack_end+0x3efbaf0>
    1dc0:	04030313          	addi	t1,t1,64 # 4000040 <_stack_end+0x3efbaec>
    1dc4:	ccd88893          	addi	a7,a7,-819 # cccccccd <_stack_end+0xccbc8779>
    1dc8:	00a00593          	li	a1,10
    1dcc:	00000793          	li	a5,0
    1dd0:	00010637          	lui	a2,0x10
    1dd4:	04e57663          	bgeu	a0,a4,1e20 <print_dec+0x78>
    1dd8:	00078813          	mv	a6,a5
    1ddc:	00000793          	li	a5,0
    1de0:	04081063          	bnez	a6,1e20 <print_dec+0x78>
    1de4:	03173833          	mulhu	a6,a4,a7
    1de8:	fff58593          	addi	a1,a1,-1
    1dec:	02e57533          	remu	a0,a0,a4
    1df0:	00385713          	srli	a4,a6,0x3
    1df4:	fe0590e3          	bnez	a1,1dd4 <print_dec+0x2c>
    1df8:	02079263          	bnez	a5,1e1c <print_dec+0x74>
    1dfc:	04000737          	lui	a4,0x4000
    1e00:	04470713          	addi	a4,a4,68 # 4000044 <_stack_end+0x3efbaf0>
    1e04:	000106b7          	lui	a3,0x10
    1e08:	00072783          	lw	a5,0(a4)
    1e0c:	fed7eee3          	bltu	a5,a3,1e08 <print_dec+0x60>
    1e10:	040007b7          	lui	a5,0x4000
    1e14:	03000713          	li	a4,48
    1e18:	04e7a023          	sw	a4,64(a5) # 4000040 <_stack_end+0x3efbaec>
    1e1c:	00008067          	ret
    1e20:	02e55833          	divu	a6,a0,a4
    1e24:	03080813          	addi	a6,a6,48
    1e28:	0ff87813          	zext.b	a6,a6
    1e2c:	0006a783          	lw	a5,0(a3) # 10000 <vga_base+0xbab0>
    1e30:	fec7eee3          	bltu	a5,a2,1e2c <print_dec+0x84>
    1e34:	01032023          	sw	a6,0(t1)
    1e38:	00100793          	li	a5,1
    1e3c:	fa9ff06f          	j	1de4 <print_dec+0x3c>

00001e40 <print_hex32>:
    1e40:	04000737          	lui	a4,0x4000
    1e44:	04470713          	addi	a4,a4,68 # 4000044 <_stack_end+0x3efbaf0>
    1e48:	000106b7          	lui	a3,0x10
    1e4c:	00072783          	lw	a5,0(a4)
    1e50:	fed7eee3          	bltu	a5,a3,1e4c <print_hex32+0xc>
    1e54:	040007b7          	lui	a5,0x4000
    1e58:	03000693          	li	a3,48
    1e5c:	04d7a023          	sw	a3,64(a5) # 4000040 <_stack_end+0x3efbaec>
    1e60:	04478713          	addi	a4,a5,68
    1e64:	000106b7          	lui	a3,0x10
    1e68:	00072783          	lw	a5,0(a4)
    1e6c:	fed7eee3          	bltu	a5,a3,1e68 <print_hex32+0x28>
    1e70:	04000837          	lui	a6,0x4000
    1e74:	04080813          	addi	a6,a6,64 # 4000040 <_stack_end+0x3efbaec>
    1e78:	07800793          	li	a5,120
    1e7c:	04000737          	lui	a4,0x4000
    1e80:	00f82023          	sw	a5,0(a6)
    1e84:	04470713          	addi	a4,a4,68 # 4000044 <_stack_end+0x3efbaf0>
    1e88:	01c00613          	li	a2,28
    1e8c:	00900313          	li	t1,9
    1e90:	000106b7          	lui	a3,0x10
    1e94:	ffc00893          	li	a7,-4
    1e98:	00c557b3          	srl	a5,a0,a2
    1e9c:	00f7f793          	andi	a5,a5,15
    1ea0:	03778593          	addi	a1,a5,55
    1ea4:	00f36463          	bltu	t1,a5,1eac <print_hex32+0x6c>
    1ea8:	03078593          	addi	a1,a5,48
    1eac:	00072783          	lw	a5,0(a4)
    1eb0:	fed7eee3          	bltu	a5,a3,1eac <print_hex32+0x6c>
    1eb4:	00b82023          	sw	a1,0(a6)
    1eb8:	ffc60613          	addi	a2,a2,-4 # fffc <vga_base+0xbaac>
    1ebc:	fd161ee3          	bne	a2,a7,1e98 <print_hex32+0x58>
    1ec0:	00008067          	ret

00001ec4 <handle_exception>:
    1ec4:	00200793          	li	a5,2
    1ec8:	1af80463          	beq	a6,a5,2070 <handle_exception+0x1ac>
    1ecc:	00b00793          	li	a5,11
    1ed0:	12f80663          	beq	a6,a5,1ffc <handle_exception+0x138>
    1ed4:	14081c63          	bnez	a6,202c <handle_exception+0x168>
    1ed8:	00004637          	lui	a2,0x4
    1edc:	000048b7          	lui	a7,0x4
    1ee0:	04000737          	lui	a4,0x4000
    1ee4:	04000837          	lui	a6,0x4000
    1ee8:	4c860613          	addi	a2,a2,1224 # 44c8 <FONT_CHARS+0x2c>
    1eec:	4f788893          	addi	a7,a7,1271 # 44f7 <FONT_CHARS+0x5b>
    1ef0:	04470713          	addi	a4,a4,68 # 4000044 <_stack_end+0x3efbaf0>
    1ef4:	04080813          	addi	a6,a6,64 # 4000040 <_stack_end+0x3efbaec>
    1ef8:	00a00593          	li	a1,10
    1efc:	000106b7          	lui	a3,0x10
    1f00:	00072783          	lw	a5,0(a4)
    1f04:	fed7eee3          	bltu	a5,a3,1f00 <handle_exception+0x3c>
    1f08:	00b82023          	sw	a1,0(a6)
    1f0c:	00160613          	addi	a2,a2,1
    1f10:	00064583          	lbu	a1,0(a2)
    1f14:	ff1616e3          	bne	a2,a7,1f00 <handle_exception+0x3c>
    1f18:	00004637          	lui	a2,0x4
    1f1c:	000048b7          	lui	a7,0x4
    1f20:	04000737          	lui	a4,0x4000
    1f24:	04000837          	lui	a6,0x4000
    1f28:	53c60613          	addi	a2,a2,1340 # 453c <FONT_CHARS+0xa0>
    1f2c:	54f88893          	addi	a7,a7,1359 # 454f <FONT_CHARS+0xb3>
    1f30:	04470713          	addi	a4,a4,68 # 4000044 <_stack_end+0x3efbaf0>
    1f34:	04080813          	addi	a6,a6,64 # 4000040 <_stack_end+0x3efbaec>
    1f38:	04500593          	li	a1,69
    1f3c:	000106b7          	lui	a3,0x10
    1f40:	00072783          	lw	a5,0(a4)
    1f44:	fed7eee3          	bltu	a5,a3,1f40 <handle_exception+0x7c>
    1f48:	00b82023          	sw	a1,0(a6)
    1f4c:	00160613          	addi	a2,a2,1
    1f50:	00064583          	lbu	a1,0(a2)
    1f54:	ff1616e3          	bne	a2,a7,1f40 <handle_exception+0x7c>
    1f58:	04000737          	lui	a4,0x4000
    1f5c:	04470713          	addi	a4,a4,68 # 4000044 <_stack_end+0x3efbaf0>
    1f60:	000106b7          	lui	a3,0x10
    1f64:	00072783          	lw	a5,0(a4)
    1f68:	fed7eee3          	bltu	a5,a3,1f64 <handle_exception+0xa0>
    1f6c:	040007b7          	lui	a5,0x4000
    1f70:	03000693          	li	a3,48
    1f74:	04d7a023          	sw	a3,64(a5) # 4000040 <_stack_end+0x3efbaec>
    1f78:	04478713          	addi	a4,a5,68
    1f7c:	000106b7          	lui	a3,0x10
    1f80:	00072783          	lw	a5,0(a4)
    1f84:	fed7eee3          	bltu	a5,a3,1f80 <handle_exception+0xbc>
    1f88:	04000837          	lui	a6,0x4000
    1f8c:	04080813          	addi	a6,a6,64 # 4000040 <_stack_end+0x3efbaec>
    1f90:	07800793          	li	a5,120
    1f94:	04000737          	lui	a4,0x4000
    1f98:	00f82023          	sw	a5,0(a6)
    1f9c:	04470713          	addi	a4,a4,68 # 4000044 <_stack_end+0x3efbaf0>
    1fa0:	01c00613          	li	a2,28
    1fa4:	00900313          	li	t1,9
    1fa8:	000106b7          	lui	a3,0x10
    1fac:	ffc00893          	li	a7,-4
    1fb0:	00c557b3          	srl	a5,a0,a2
    1fb4:	00f7f793          	andi	a5,a5,15
    1fb8:	03778593          	addi	a1,a5,55
    1fbc:	00f36463          	bltu	t1,a5,1fc4 <handle_exception+0x100>
    1fc0:	03078593          	addi	a1,a5,48
    1fc4:	00072783          	lw	a5,0(a4)
    1fc8:	fed7eee3          	bltu	a5,a3,1fc4 <handle_exception+0x100>
    1fcc:	00b82023          	sw	a1,0(a6)
    1fd0:	ffc60613          	addi	a2,a2,-4
    1fd4:	fd161ee3          	bne	a2,a7,1fb0 <handle_exception+0xec>
    1fd8:	04000737          	lui	a4,0x4000
    1fdc:	04470713          	addi	a4,a4,68 # 4000044 <_stack_end+0x3efbaf0>
    1fe0:	000106b7          	lui	a3,0x10
    1fe4:	00072783          	lw	a5,0(a4)
    1fe8:	fed7eee3          	bltu	a5,a3,1fe4 <handle_exception+0x120>
    1fec:	040007b7          	lui	a5,0x4000
    1ff0:	00a00713          	li	a4,10
    1ff4:	04e7a023          	sw	a4,64(a5) # 4000040 <_stack_end+0x3efbaec>
    1ff8:	0000006f          	j	1ff8 <handle_exception+0x134>
    1ffc:	00400793          	li	a5,4
    2000:	0af88a63          	beq	a7,a5,20b4 <handle_exception+0x1f0>
    2004:	0f089463          	bne	a7,a6,20ec <handle_exception+0x228>
    2008:	04000737          	lui	a4,0x4000
    200c:	04470713          	addi	a4,a4,68 # 4000044 <_stack_end+0x3efbaf0>
    2010:	000106b7          	lui	a3,0x10
    2014:	00072783          	lw	a5,0(a4)
    2018:	fed7eee3          	bltu	a5,a3,2014 <handle_exception+0x150>
    201c:	040007b7          	lui	a5,0x4000
    2020:	0ff57513          	zext.b	a0,a0
    2024:	04a7a023          	sw	a0,64(a5) # 4000040 <_stack_end+0x3efbaec>
    2028:	00008067          	ret
    202c:	00004637          	lui	a2,0x4
    2030:	000048b7          	lui	a7,0x4
    2034:	04000737          	lui	a4,0x4000
    2038:	04000837          	lui	a6,0x4000
    203c:	51c60613          	addi	a2,a2,1308 # 451c <FONT_CHARS+0x80>
    2040:	53888893          	addi	a7,a7,1336 # 4538 <FONT_CHARS+0x9c>
    2044:	04470713          	addi	a4,a4,68 # 4000044 <_stack_end+0x3efbaf0>
    2048:	04080813          	addi	a6,a6,64 # 4000040 <_stack_end+0x3efbaec>
    204c:	00a00593          	li	a1,10
    2050:	000106b7          	lui	a3,0x10
    2054:	00072783          	lw	a5,0(a4)
    2058:	fed7eee3          	bltu	a5,a3,2054 <handle_exception+0x190>
    205c:	00b82023          	sw	a1,0(a6)
    2060:	00160613          	addi	a2,a2,1
    2064:	00064583          	lbu	a1,0(a2)
    2068:	ff1616e3          	bne	a2,a7,2054 <handle_exception+0x190>
    206c:	eadff06f          	j	1f18 <handle_exception+0x54>
    2070:	00004637          	lui	a2,0x4
    2074:	000048b7          	lui	a7,0x4
    2078:	04000737          	lui	a4,0x4000
    207c:	04000837          	lui	a6,0x4000
    2080:	4f860613          	addi	a2,a2,1272 # 44f8 <FONT_CHARS+0x5c>
    2084:	51a88893          	addi	a7,a7,1306 # 451a <FONT_CHARS+0x7e>
    2088:	04470713          	addi	a4,a4,68 # 4000044 <_stack_end+0x3efbaf0>
    208c:	04080813          	addi	a6,a6,64 # 4000040 <_stack_end+0x3efbaec>
    2090:	00a00593          	li	a1,10
    2094:	000106b7          	lui	a3,0x10
    2098:	00072783          	lw	a5,0(a4)
    209c:	fed7eee3          	bltu	a5,a3,2098 <handle_exception+0x1d4>
    20a0:	00b82023          	sw	a1,0(a6)
    20a4:	00160613          	addi	a2,a2,1
    20a8:	00064583          	lbu	a1,0(a2)
    20ac:	ff1616e3          	bne	a2,a7,2098 <handle_exception+0x1d4>
    20b0:	e69ff06f          	j	1f18 <handle_exception+0x54>
    20b4:	00054603          	lbu	a2,0(a0)
    20b8:	02060a63          	beqz	a2,20ec <handle_exception+0x228>
    20bc:	04000737          	lui	a4,0x4000
    20c0:	040005b7          	lui	a1,0x4000
    20c4:	04470713          	addi	a4,a4,68 # 4000044 <_stack_end+0x3efbaf0>
    20c8:	04058593          	addi	a1,a1,64 # 4000040 <_stack_end+0x3efbaec>
    20cc:	000106b7          	lui	a3,0x10
    20d0:	00072783          	lw	a5,0(a4)
    20d4:	fed7eee3          	bltu	a5,a3,20d0 <handle_exception+0x20c>
    20d8:	00c5a023          	sw	a2,0(a1)
    20dc:	00154603          	lbu	a2,1(a0)
    20e0:	00150513          	addi	a0,a0,1
    20e4:	fe0616e3          	bnez	a2,20d0 <handle_exception+0x20c>
    20e8:	00008067          	ret
    20ec:	00008067          	ret

000020f0 <nextprime>:
    20f0:	00200793          	li	a5,2
    20f4:	02a7c063          	blt	a5,a0,2114 <nextprime+0x24>
    20f8:	00100693          	li	a3,1
    20fc:	00a05863          	blez	a0,210c <nextprime+0x1c>
    2100:	fff50793          	addi	a5,a0,-1
    2104:	00f037b3          	snez	a5,a5
    2108:	00278693          	addi	a3,a5,2
    210c:	00068513          	mv	a0,a3
    2110:	00008067          	ret
    2114:	00150513          	addi	a0,a0,1
    2118:	00156693          	ori	a3,a0,1
    211c:	00300793          	li	a5,3
    2120:	02f6e733          	rem	a4,a3,a5
    2124:	4016d613          	srai	a2,a3,0x1
    2128:	00260613          	addi	a2,a2,2
    212c:	00178793          	addi	a5,a5,1
    2130:	00070a63          	beqz	a4,2144 <nextprime+0x54>
    2134:	fcf60ce3          	beq	a2,a5,210c <nextprime+0x1c>
    2138:	02f6e733          	rem	a4,a3,a5
    213c:	00178793          	addi	a5,a5,1
    2140:	fe071ae3          	bnez	a4,2134 <nextprime+0x44>
    2144:	00268693          	addi	a3,a3,2 # 10002 <vga_base+0xbab2>
    2148:	fd5ff06f          	j	211c <nextprime+0x2c>

Disassembly of section .srodata:

00004550 <vga_base>:
    4550:	0000                	.insn	2, 0x0000
    4552:	0800                	.insn	2, 0x0800
